(dp1
S'File'
p2
S"(dp1\nS'widgetHeight'\np2\nI470\nsS'widgetXPosition'\np3\nI723\nsS'widgetYPosition'\np4\nI216\nsS'widgetShown'\np5\nI0\nsS'showAdvanced'\np6\nI01\nsS'createNewOn'\np7\nI3\nsS'widgetWidth'\np8\nI614\nsS'localContextsVersion'\np9\n(I100\nI0\ntp10\nsS'localContexts'\np11\n(lp12\n(iOWContexts\nContext\np13\n(dp14\nS'symbolDK'\np15\nS''\nsS'symbolDC'\np16\nS''\nsS'time'\np17\nF1274196335.577399\nsS'filename'\np18\nS'/Users/aleserjavec/Documents/workspace/widgetDebugging/datasets/constant_class___continuous.tab'\np19\nsba(iOWContexts\nContext\np20\n(dp21\nS'symbolDC'\np22\nS''\nsS'symbolDK'\np23\nS''\nsS'filename'\np24\nS'/Users/aleserjavec/Documents/workspace/widgetDebugging/datasets/cont_attribute___always_unknown_class___continuous.tab'\np25\nsS'time'\np26\nF1273761808.4910359\nsba(iOWContexts\nContext\np27\n(dp28\nS'symbolDK'\np29\nS''\nsS'symbolDC'\np30\nS''\nsS'time'\np31\nF1274103248.737484\nsS'filename'\np32\nS'/Users/aleserjavec/Documents/workspace/widgetDebugging/datasets/constant_attribute___continuous.tab'\np33\nsba(iOWContexts\nContext\np34\n(dp35\nS'symbolDK'\np36\nS''\nsS'symbolDC'\np37\nS''\nsS'time'\np38\nF1274095643.0451469\nsS'filename'\np39\nS'/Users/aleserjavec/Documents/workspace/widgetDebugging/datasets/always_unknown_attribute-noclass.tab'\np40\nsba(iOWContexts\nContext\np41\n(dp42\nS'symbolDK'\np43\nS''\nsS'symbolDC'\np44\nS''\nsS'time'\np45\nF1273831984.923425\nsS'filename'\np46\nS'/Users/aleserjavec/Documents/workspace/widgetDebugging/datasets/always_unknown_attribute___continuous.tab'\np47\nsba(iOWContexts\nContext\np48\n(dp49\nS'symbolDK'\np50\nS''\nsS'symbolDC'\np51\nS''\nsS'time'\np52\nF1273842711.154882\nsS'filename'\np53\nS'/Users/aleserjavec/Documents/workspace/widgetDebugging/datasets/breastcancer2004.tab'\np54\nsba(iOWContexts\nContext\np55\n(dp56\nS'symbolDC'\np57\nS''\nsS'symbolDK'\np58\nS''\nsS'filename'\np59\nS'/Users/aleserjavec/Documents/workspace/orange/doc/datasets/brown-selected.tab'\np60\nsS'time'\np61\nF1273483403.8679171\nsba(iOWContexts\nContext\np62\n(dp63\nS'symbolDK'\np64\nS''\nsS'symbolDC'\np65\nS''\nsS'time'\np66\nF1273763872.2556391\nsS'filename'\np67\nS'/Users/aleserjavec/Documents/workspace/orange/doc/datasets/iris.tab'\np68\nsba(iOWContexts\nContext\np69\n(dp70\nS'symbolDK'\np71\nS''\nsS'symbolDC'\np72\nS''\nsS'time'\np73\nF1274098894.4688139\nsS'filename'\np74\nS'/Users/aleserjavec/Documents/workspace/widgetDebugging/datasets/constant_attribute-noclass.tab'\np75\nsba(iOWContexts\nContext\np76\n(dp77\ng36\nS''\nsg37\nS''\nsg38\nF1274095739.5626481\nsg39\nS'/Users/aleserjavec/Documents/workspace/widgetDebugging/datasets/always_unknown_attribute___continuous-noclass.tab'\np78\nsba(iOWContexts\nContext\np79\n(dp80\nS'symbolDK'\np81\nS''\nsS'symbolDC'\np82\nS''\nsS'time'\np83\nF1273836059.7632401\nsS'filename'\np84\nS'/Users/aleserjavec/Documents/workspace/widgetDebugging/datasets/always_unknown_attribute.tab'\np85\nsba(iOWContexts\nContext\np86\n(dp87\nS'symbolDK'\np88\nS''\nsS'symbolDC'\np89\nS''\nsS'time'\np90\nF1273838506.632822\nsS'filename'\np91\nS'/Users/aleserjavec/Documents/workspace/widgetDebugging/datasets/constant_class.tab'\np92\nsba(iOWContexts\nContext\np93\n(dp94\nS'symbolDC'\np95\nS''\nsS'symbolDK'\np96\nS''\nsS'filename'\np97\nS'/Users/aleserjavec/Documents/workspace/widgetDebugging/datasets/constant_class___values_defined.tab'\np98\nsS'time'\np99\nF1273840518.6345339\nsba(iOWContexts\nContext\np100\n(dp101\nS'symbolDK'\np102\nS''\nsS'symbolDC'\np103\nS''\nsS'time'\np104\nF1273755093.9877031\nsS'filename'\np105\nS'/Users/aleserjavec/Documents/workspace/widgetDebugging/datasets/two_valued_attribute___continuous.tab'\np106\nsba(iOWContexts\nContext\np107\n(dp108\nS'symbolDC'\np109\nS''\nsS'symbolDK'\np110\nS''\nsS'filename'\np111\nS'/Users/aleserjavec/Documents/workspace/orange/doc/datasets/lenses.tab'\np112\nsS'time'\np113\nF1273759344.255486\nsba(iOWContexts\nContext\np114\n(dp115\ng102\nS''\nsg103\nS''\nsg104\nF1273755036.0459321\nsg105\nS''\nsba(iOWContexts\nContext\np116\n(dp117\nS'symbolDK'\np118\nS''\nsS'symbolDC'\np119\nS''\nsS'time'\np120\nF1196689968.171\nsS'filename'\np121\nS'E:/Development/Orange Datasets/UCI/zoo.tab'\np122\nsba(iOWContexts\nContext\np123\n(dp124\nS'symbolDC'\np125\nS''\nsS'symbolDK'\np126\nS''\nsS'filename'\np127\nS'E:/Development/Orange Datasets/Blaz/05-cur-w-calc.tab'\np128\nsS'time'\np129\nF1196689758.171\nsbasS'recentFiles'\np130\n(lp131\ng19\nag25\nag33\nag40\nag47\nag54\nag60\nag68\naS'/Users/aleserjavec/Documents/workspace/widgetDebugging/datasets/constant_attribute-noclass.tab'\np132\naS'/Users/aleserjavec/Documents/workspace/widgetDebugging/datasets/always_unknown_attribute___continuous-noclass.tab'\np133\naS'/Users/aleserjavec/Documents/workspace/widgetDebugging/datasets/always_unknown_attribute.tab'\np134\naS'/Users/aleserjavec/Documents/workspace/widgetDebugging/datasets/constant_class.tab'\np135\naS'/Users/aleserjavec/Documents/workspace/widgetDebugging/datasets/constant_class___values_defined.tab'\np136\naS'/Users/aleserjavec/Documents/workspace/widgetDebugging/datasets/two_valued_attribute___continuous.tab'\np137\naS'/Users/aleserjavec/Documents/workspace/orange/doc/datasets/lenses.tab'\np138\nas."
p3
sS'Association Rules Explorer'
p4
S"(dp1\nS'showlift'\np2\nI01\nsS'autoSend'\np3\nI01\nsS'showcoverage'\np4\nI01\nsS'showstrength'\np5\nI01\nsS'widgetHeight'\np6\nI440\nsS'widgetXPosition'\np7\nI225\nsS'widgetYPosition'\np8\nI230\nsS'showleverage'\np9\nI01\nsS'showsupport'\np10\nI1\nsS'widgetShown'\np11\nI0\nsS'showconfidence'\np12\nI1\nsS'showWholeRules'\np13\nI1\nsS'widgetWidth'\np14\nI939\nsS'treeDepth'\np15\nI2\nsS'purgeAttributes'\np16\nI01\nsS'purgeClasses'\np17\nI01\ns."
p5
sS'Association Rules Filter'
p6
S"(dp1\nS'confidence'\np2\nI01\nsS'autoSend'\np3\nI01\nsS'leverage'\np4\nI00\nsS'widgetHeight'\np5\nI621\nsS'support'\np6\nI01\nsS'widgetYPosition'\np7\nI194\nsS'sortedBy'\np8\nI0\nsS'widgetShown'\np9\nI0\nsS'lift'\np10\nI00\nsS'widgetWidth'\np11\nI1169\nsS'coverage'\np12\nI00\nsS'widgetXPosition'\np13\nI194\nsS'strength'\np14\nI00\ns."
p7
sS'Association Rules'
p8
S"(dp1\nS'classificationRules'\np2\nI0\nsS'minConfidence'\np3\nI20\nsS'widgetXPosition'\np4\nI571\nsS'widgetYPosition'\np5\nI269\nsS'widgetShown'\np6\nI0\nsS'maxRules'\np7\nI10000\nsS'widgetWidth'\np8\nI247\nsS'useSparseAlgorithm'\np9\nI00\nsS'widgetHeight'\np10\nI361\nsS'minSupport'\np11\nI40\ns."
p9
sS'Itemsets Explorer'
p10
S"(dp1\nS'autoSend'\np2\nI01\nsS'widgetHeight'\np3\nI494\nsS'widgetXPosition'\np4\nI429\nsS'widgetYPosition'\np5\nI233\nsS'widgetShown'\np6\nI0\nsS'purgeClasses'\np7\nI01\nsS'widgetWidth'\np8\nI778\nsS'treeDepth'\np9\nI4\nsS'showWholeItemsets'\np10\nI01\nsS'purgeAttributes'\np11\nI01\ns."
p11
sS'Itemsets'
p12
S"(dp1\nS'widgetHeight'\np2\nI243\nsS'widgetXPosition'\np3\nI571\nsS'widgetYPosition'\np4\nI328\nsS'widgetShown'\np5\nI0\nsS'maxRules'\np6\nI10000\nsS'widgetWidth'\np7\nI247\nsS'useSparseAlgorithm'\np8\nI01\nsS'minSupport'\np9\nI50\ns."
p13
s.