(dp1
S'Discretize'
p2
S"(dp1\nS'ShowIntervals'\np2\nI0\nsS'Categorization'\np3\nI1\nsS'DiscretizeClass'\np4\nI0\nsS'NumberOfIntervals'\np5\nF2\ns."
p3
sS'Data Sampler'
p4
S'(dp1\n.'
p5
sS'Select Data'
p6
S"(dp1\nS'loadedVarNames'\np2\n(lp3\nS'TKL'\np4\naS'VELIKOST'\np5\naS'VEL.S'\np6\naS'GRADUS'\np7\naS'PREGL.BE'\np8\naS'INVAZIJA'\np9\naS'DNA.PLOI'\np10\naS'FAZAS'\np11\naS'STAROST'\np12\naS'STEVILO'\np13\naS'ZDRAVLJE'\np14\naS'VRSTA_KT'\np15\naS'UPA'\np16\naS'PAI_1'\np17\naS'PAI_2'\np18\naS'UPAR'\np19\naS'KAT.L'\np20\naS'KAT.D'\np21\naS'MEN1'\np22\naS'VEL1'\np23\naS'TIPTU1'\np24\naS'GRAD1'\np25\naS'INV1'\np26\naS'BEZG1'\np27\naS'HR1'\np28\naS'PAI2CUT'\np29\naS'PAI1.14'\np30\naS'UPA3'\np31\naS'PROGRES'\np32\nasS'updateOnChange'\np33\nI01\nsS'loadedConditions'\np34\n(lp35\ns."
p7
sS'Continuize'
p8
S"(dp1\nS'multinomialTreatment'\np2\nI0\nsS'classTreatment'\np3\nI0\nsS'autosend'\np4\nI0\nsS'continuousTreatment'\np5\nI0\nsS'zeroBased'\np6\nI1\ns."
p9
sS'File'
p10
S"(dp1\nS'recentFiles'\np2\n(lp3\nS'E:/Development/Python23/Lib/site-packages/Orange/Datasets/breastcancer2004.tab'\np4\naS'E:/Development/Python23/Lib/site-packages/Orange/Datasets/UCI/monks-1.tab'\np5\naS'E:/Development/Python23/Lib/site-packages/Orange/Datasets/UCI/wine.tab'\np6\naS'E:/Development/Python23/Lib/site-packages/Orange/Datasets/microarray/cancer/leukemia.tab'\np7\naS'E:/Development/Python23/Lib/site-packages/Orange/Datasets/UCI/titanic.tab'\np8\naS'E:/Development/Python23/Lib/site-packages/Orange/Datasets/toni.tab'\np9\naS'E:/Development/Python23/Lib/site-packages/Orange/Datasets/imatch/jebsen.tab'\np10\naS'E:/Development/Python23/Lib/site-packages/Orange/Datasets/microarray/cancer/braintumor.tab'\np11\naS'E:/Development/Python23/Lib/site-packages/Orange/Datasets/UCI/zoo.tab'\np12\naS'E:/Development/Python23/Lib/site-packages/Orange/Datasets/microarray/cancer/MLL.tab'\np13\naS'E:/Development/Python23/Lib/site-packages/Orange/Datasets/microarray/cancer/SRBCT.tab'\np14\naS'E:/Development/Python23/Lib/site-packages/Orange/Datasets/UCI/voting.tab'\np15\naS'E:/Development/Python23/Lib/site-packages/Orange/Datasets/microarray/cancer/leukemia_3class.tab'\np16\naS'E:/Development/Python23/Lib/site-packages/Orange/Datasets/microarray/cancer/lung.tab'\np17\naS'E:/Development/Python23/Lib/site-packages/Orange/Datasets/microarray/cancer/DLBCL.tab'\np18\naS'E:/Development/Python23/Lib/site-packages/Orange/doc/datasets/horse-colic.tab'\np19\naS'E:/Development/Python23/Lib/site-packages/Orange/Datasets/UCI/lenses.tab'\np20\naS'E:/Development/Python23/Lib/site-packages/Orange/Datasets/UCI/wdbc.tab'\np21\naS'E:/Development/Python23/Lib/site-packages/Orange/Datasets/breast-cancer-wisconsin.tab'\np22\naS'E:/Development/Python23/Lib/site-packages/Orange/Datasets/UCI/shuttle-landing-control.tab'\np23\naS'E:/Development/Python23/Lib/site-packages/Orange/Datasets/UCI/monks-1_learn.tab'\np24\naS'E:/Development/Python23/Lib/site-packages/Orange/Datasets/UCI/monks-2_learn.tab'\np25\naS'E:/Development/Python23/Lib/site-packages/Orange/Datasets/UCI/monks-3_learn.tab'\np26\naS'E:/Development/Python23/Lib/site-packages/Orange/Datasets/UCI/adult_sample.tab'\np27\naS'E:/Development/Python23/Lib/site-packages/Orange/Datasets/HHS.tab'\np28\naS'E:/Development/Python23/Lib/site-packages/Orange/Datasets/HHS_disc.tab'\np29\naS'E:/Development/Python23/Lib/site-packages/Orange/Datasets/UCI/ionosphere.tab'\np30\naS'E:/Development/Python23/Lib/site-packages/Orange/Datasets/UCI/imports-85-disc.tab'\np31\naS'E:/Development/Python23/Lib/site-packages/Orange/Datasets/UCI/auto-mpg.tab'\np32\naS'E:/Development/Python23/Lib/site-packages/Orange/Datasets/UCI/monks-2_test.tab'\np33\naS'E:/Development/Python23/Lib/site-packages/Orange/Datasets/UCI/breast-cancer.tab'\np34\naS'E:/Development/Python23/Lib/site-packages/Orange/doc/datasets/zoo.tab'\np35\naS'E:/Development/Python23/Lib/site-packages/Orange/Datasets/UCI/iris.tab'\np36\naS'E:/Development/Python23/Lib/site-packages/Orange/Datasets/jure/klopi_zeimelLB.tab'\np37\naS'E:/Development/Python23/Lib/site-packages/Orange/Datasets/microarray/cancer/LL_GSE1577_2razreda.tab'\np38\naS'E:/Development/Python23/Lib/site-packages/Orange/Datasets/cursh injury.tab'\np39\naS'E:/Development/Python23/Lib/site-packages/Orange/Datasets/imatch/komanda.tab'\np40\naS'E:/Development/Python23/Lib/site-packages/Orange/Datasets/imatch/elektronika-51-52.tab'\np41\naS'E:/Development/Python23/Lib/site-packages/Orange/Datasets/imatch/elektronika-11-12.tab'\np42\naS'E:/Development/Python23/Lib/site-packages/Orange/Datasets/imatch/elektronika.tab'\np43\naS'E:/Development/Python23/Lib/site-packages/Orange/Datasets/imatch/diagnoses.tab'\np44\naS'E:/Development/Python23/Lib/site-packages/Orange/Datasets/imatch/diagnoses-10-40.tab'\np45\naS'E:/Development/Python23/Lib/site-packages/Orange/Datasets/imatch/ill-vs-healthy.tab'\np46\naS'E:/Development/Python23/Lib/site-packages/Orange/Datasets/microarray/brown/brown-selected.tab'\np47\naS'E:/Development/Python23/Lib/site-packages/Orange/Datasets/microarray/brown/brown-imputed.tab'\np48\nas."
p11
sS'Select Attributes'
p12
S"(dp1\nS'localContexts'\np2\n(lp3\n(iOWBaseWidget\nContext\np4\n(dp5\nS'noCopy'\np6\n(lp7\nS'orderedDomain'\np8\nasS'encodedDomain'\np9\n(dp10\nS'DNA.PLOI'\np11\nI1\nsS'MEN1'\np12\nI1\nsS'BEZG1'\np13\nI1\nsS'INVAZIJA'\np14\nI1\nsS'KAT.D'\np15\nI2\nsS'GRAD1'\np16\nI1\nsS'KAT.L'\np17\nI2\nsS'STAROST'\np18\nI2\nsS'TKL'\np19\nI1\nsS'HR1'\np20\nI1\nsS'PREGL.BE'\np21\nI2\nsS'PROGRES'\np22\nI1\nsS'UPAR'\np23\nI2\nsS'VEL.S'\np24\nI1\nsS'STEVILO'\np25\nI2\nsS'PAI2CUT'\np26\nI1\nsS'PAI_2'\np27\nI2\nsS'PAI_1'\np28\nI2\nsS'INV1'\np29\nI1\nsS'TIPTU1'\np30\nI1\nsS'UPA3'\np31\nI1\nsS'UPA'\np32\nI2\nsS'VELIKOST'\np33\nI2\nsS'GRADUS'\np34\nI1\nsS'VRSTA_KT'\np35\nI1\nsS'PAI1.14'\np36\nI1\nsS'FAZAS'\np37\nI2\nsS'ZDRAVLJE'\np38\nI1\nsS'VEL1'\np39\nI1\nssS'values'\np40\n(dp41\nS'selectedMeta'\np42\n(lp43\nsS'metaAttributes'\np44\n(lp45\nsS'selectedChosen'\np46\n(lp47\nsS'chosenAttributes'\np48\n(lp49\n(S'TKL'\nI1\ntp50\na(S'VEL.S'\nI1\ntp51\na(S'GRADUS'\nI1\ntp52\na(S'INVAZIJA'\nI1\ntp53\na(S'DNA.PLOI'\nI1\ntp54\na(S'ZDRAVLJE'\nI1\ntp55\na(S'VRSTA_KT'\nI1\ntp56\na(S'MEN1'\nI1\ntp57\na(S'VEL1'\nI1\ntp58\na(S'TIPTU1'\nI1\ntp59\na(S'GRAD1'\nI1\ntp60\na(S'INV1'\nI1\ntp61\na(S'BEZG1'\nI1\ntp62\na(S'HR1'\nI1\ntp63\na(S'PAI2CUT'\nI1\ntp64\na(S'PAI1.14'\nI1\ntp65\na(S'UPA3'\nI1\ntp66\nasS'classAttribute'\np67\n(lp68\n(S'PROGRES'\nI1\ntp69\nasS'selectedClass'\np70\n(lp71\nI0\nassS'time'\np72\nF1141050155.5\nsba(iOWBaseWidget\nContext\np73\n(dp74\nS'values'\np75\n(dp76\nS'selectedMeta'\np77\n(lp78\nsS'metaAttributes'\np79\n(lp80\nsS'selectedChosen'\np81\n(lp82\nI0\naI1\naI2\naI3\nasS'chosenAttributes'\np83\n(lp84\n(S'A3'\nI2\ntp85\na(S'A4'\nI2\ntp86\na(S'A5'\nI2\ntp87\na(S'A6'\nI2\ntp88\na(S'A1'\nI2\ntp89\na(S'A2'\nI2\ntp90\na(S'A7'\nI2\ntp91\na(S'A8'\nI2\ntp92\na(S'A9'\nI2\ntp93\na(S'A10'\nI2\ntp94\na(S'A11'\nI2\ntp95\na(S'A12'\nI2\ntp96\na(S'A13'\nI2\ntp97\nasS'classAttribute'\np98\n(lp99\n(S'Wine'\nI1\ntp100\nasS'selectedClass'\np101\n(lp102\nssS'time'\np103\nF1140701390.8280001\nsS'noCopy'\np104\n(lp105\nS'orderedDomain'\np106\nasS'encodedDomain'\np107\n(dp108\nS'A11'\np109\nI2\nsS'A10'\np110\nI2\nsS'A13'\np111\nI2\nsS'A12'\np112\nI2\nsS'A1'\np113\nI2\nsS'A3'\np114\nI2\nsS'A2'\np115\nI2\nsS'A5'\np116\nI2\nsS'A4'\np117\nI2\nsS'A7'\np118\nI2\nsS'A6'\np119\nI2\nsS'A9'\np120\nI2\nsS'A8'\np121\nI2\nsS'Wine'\np122\nI1\nssba(iOWBaseWidget\nContext\np123\n(dp124\nS'orderedDomain'\np125\n(lp126\n(S'hair'\nI1\ntp127\na(S'feathers'\nI1\ntp128\na(S'eggs'\nI1\ntp129\na(S'milk'\nI1\ntp130\na(S'airborne'\nI1\ntp131\na(S'aquatic'\nI1\ntp132\na(S'predator'\nI1\ntp133\na(S'toothed'\nI1\ntp134\na(S'backbone'\nI1\ntp135\na(S'breathes'\nI1\ntp136\na(S'venomous'\nI1\ntp137\na(S'fins'\nI1\ntp138\na(S'legs'\nI1\ntp139\na(S'tail'\nI1\ntp140\na(S'domestic'\nI1\ntp141\na(S'catsize'\nI1\ntp142\na(S'type'\nI1\ntp143\nasS'time'\np144\nF1137501960.921\nsS'values'\np145\n(dp146\nS'selectedMeta'\np147\n(lp148\nsS'metaAttributes'\np149\n(lp150\n(S'domestic'\nI1\ntp151\na(S'catsize'\nI1\ntp152\nasS'selectedChosen'\np153\n(lp154\nsS'chosenAttributes'\np155\n(lp156\n(S'hair'\nI1\ntp157\na(S'feathers'\nI1\ntp158\na(S'eggs'\nI1\ntp159\na(S'milk'\nI1\ntp160\na(S'airborne'\nI1\ntp161\na(S'aquatic'\nI1\ntp162\na(S'predator'\nI1\ntp163\na(S'toothed'\nI1\ntp164\na(S'backbone'\nI1\ntp165\na(S'breathes'\nI1\ntp166\na(S'venomous'\nI1\ntp167\na(S'fins'\nI1\ntp168\na(S'legs'\nI1\ntp169\na(S'tail'\nI1\ntp170\nasS'classAttribute'\np171\n(lp172\n(S'type'\nI1\ntp173\nasS'selectedClass'\np174\n(lp175\nssS'encodedDomain'\np176\n(dp177\nS'aquatic'\np178\nI1\nsS'eggs'\np179\nI1\nsS'domestic'\np180\nI1\nsS'fins'\np181\nI1\nsS'backbone'\np182\nI1\nsS'feathers'\np183\nI1\nsS'predator'\np184\nI1\nsS'airborne'\np185\nI1\nsS'hair'\np186\nI1\nsS'toothed'\np187\nI1\nsS'tail'\np188\nI1\nsS'breathes'\np189\nI1\nsS'catsize'\np190\nI1\nsS'venomous'\np191\nI1\nsS'legs'\np192\nI1\nsS'type'\np193\nI1\nsS'milk'\np194\nI1\nssbas."
p13
s.