(dp1
S'Concatenate'
p2
S"(dp1\nS'mergeAttributes'\np2\nI0\nsS'dataSourceName'\np3\nS'clusterId'\np4\nsS'dataSourceSelected'\np5\nI1\nsS'addIdAs'\np6\nI0\nsS'widgetXPosition'\np7\nI430\nsS'widgetYPosition'\np8\nI235\nsS'widgetShown'\np9\nI0\nsS'widgetWidth'\np10\nI575\nsS'widgetHeight'\np11\nI430\ns."
p3
sS'Data Sampler'
p4
S"(dp1\nS'CVFolds'\np2\nI10\nsS'widgetXPosition'\np3\nI163\nsS'widgetYPosition'\np4\nI112\nsS'LOO'\np5\nI1\nsS'widgetWidth'\np6\nI329\nsS'selPercentage'\np7\nI100\nsS'Repeat'\np8\nI01\nsS'RandomSeed'\np9\nI1\nsS'pGroups'\np10\n(lp11\nF0.10000000000000001\naF0.25\naF0.5\nasS'widgetHeight'\np12\nI682\nsS'SelectType'\np13\nI1\nsS'nGroups'\np14\nI3\nsS'widgetShown'\np15\nI0\nsS'GroupSeed'\np16\nI1\nsS'Stratified'\np17\nI00\nsS'outFold'\np18\nI1\nsS'useCases'\np19\nI00\nsS'localContextsVersion'\np20\n(I100\nI0\ntp21\nsS'localContexts'\np22\n(lp23\nsS'nCases'\np24\nI25\nsS'Folds'\np25\nI10\nsS'UseSpecificSeed'\np26\nI01\nsS'GroupText'\np27\nS'0.1,0.25,0.5'\np28\nsS'CVFoldsInternal'\np29\nI10\ns."
p5
sS'Select Attributes (2)'
p6
S"(dp1\nS'widgetHeight'\np2\nI636\nsS'widgetXPosition'\np3\nI451\nsS'widgetYPosition'\np4\nI31\nsS'widgetShown'\np5\nI0\nsS'widgetWidth'\np6\nI662\nsS'localContextsVersion'\np7\n(I100\nI0\ntp8\nsS'localContexts'\np9\n(lp10\n(iOWContexts\nContext\np11\n(dp12\nS'values'\np13\n(dp14\nS'selectedMeta'\np15\n(lp16\nsS'metaAttributes'\np17\n(lp18\nsS'selectedChosen'\np19\n(lp20\nsS'chosenAttributes'\np21\n(lp22\n(S'prescription'\ncorange\n__pickleLoaderNamedConstants\np23\n(S'Variable_Type'\n(I1\nttRp24\ntp25\na(S'astigmatic'\ng23\n(S'Variable_Type'\n(I1\nttRp26\ntp27\na(S'tear_rate'\ng23\n(S'Variable_Type'\n(I1\nttRp28\ntp29\nasS'classAttribute'\np30\n(lp31\n(S'age'\ng23\n(S'Variable_Type'\n(I2\nttRp32\ntp33\nasS'selectedClass'\np34\n(lp35\nssS'attributes'\np36\n(dp37\nS'astigmatic'\np38\ng23\n(S'Variable_Type'\n(I1\nttRp39\nsS'tear_rate'\np40\ng23\n(S'Variable_Type'\n(I1\nttRp41\nsS'age'\np42\ng23\n(S'Variable_Type'\n(I2\nttRp43\nsS'prescription'\np44\ng23\n(S'Variable_Type'\n(I1\nttRp45\nsS'lenses'\np46\ng23\n(S'Variable_Type'\n(I2\nttRp47\nssS'metas'\np48\n(dp49\nsS'noCopy'\np50\n(lp51\nS'orderedDomain'\np52\nasS'time'\np53\nF1274261942.2411349\nsbag11\nag11\nag11\nag11\nag11\nag11\nag11\nag11\nag11\nag11\nag11\nag11\nag11\nag11\nag11\nag11\nag11\nag11\nag11\nag11\nag11\nag11\nag11\nag11\nag11\nag11\nag11\nag11\nag11\nag11\nag11\nag11\nag11\nag11\nag11\nag11\nag11\nag11\nag11\nag11\nag11\nag11\nag11\nag11\nag11\nag11\nag11\nag11\nag11\nas."
p7
sS'Data Sampler (2)'
p8
S"(dp1\nS'CVFolds'\np2\nI10\nsS'widgetXPosition'\np3\nI163\nsS'widgetYPosition'\np4\nI112\nsS'LOO'\np5\nI1\nsS'widgetWidth'\np6\nI329\nsS'selPercentage'\np7\nI100\nsS'Repeat'\np8\nI01\nsS'RandomSeed'\np9\nI1\nsS'pGroups'\np10\n(lp11\nF0.10000000000000001\naF0.25\naF0.5\nasS'widgetHeight'\np12\nI682\nsS'SelectType'\np13\nI1\nsS'nGroups'\np14\nI3\nsS'widgetShown'\np15\nI0\nsS'GroupSeed'\np16\nI1\nsS'Stratified'\np17\nI00\nsS'outFold'\np18\nI1\nsS'useCases'\np19\nI00\nsS'localContextsVersion'\np20\n(I100\nI0\ntp21\nsS'localContexts'\np22\n(lp23\nsS'nCases'\np24\nI25\nsS'Folds'\np25\nI10\nsS'UseSpecificSeed'\np26\nI01\nsS'GroupText'\np27\nS'0.1,0.25,0.5'\np28\nsS'CVFoldsInternal'\np29\nI10\ns."
p9
sS'Merge Data (2)'
p10
S"(dp1\nS'widgetHeight'\np2\nI500\nsS'widgetXPosition'\np3\nI494\nsS'widgetYPosition'\np4\nI200\nsS'widgetShown'\np5\nI0\nsS'widgetWidth'\np6\nI400\nsS'localContextsBVersion'\np7\n(I100\nI0\ntp8\nsS'localContextsAVersion'\np9\n(I100\nI0\ntp10\nsS'localContextsA'\np11\n(lp12\n(iOWContexts\nContext\np13\n(dp14\nS'metas'\np15\n(dp16\nsS'values'\np17\n(dp18\nS'varA'\np19\n(NI-2\ntp20\nssS'time'\np21\nF1274367437.9001329\nsS'attributes'\np22\n(dp23\nS'astigmatic'\np24\ncorange\n__pickleLoaderNamedConstants\np25\n(S'Variable_Type'\n(I1\nttRp26\nsS'tear_rate'\np27\ng25\n(S'Variable_Type'\n(I1\nttRp28\nsS'prescription'\np29\ng25\n(S'Variable_Type'\n(I1\nttRp30\nssS'noCopy'\np31\n(lp32\nS'orderedDomain'\np33\nasbag13\nag13\nag13\nag13\nag13\nag13\nag13\nag13\nag13\nag13\nag13\nag13\na(iOWContexts\nContext\np34\n(dp35\ng15\n(dp36\nsg17\n(dp37\ng19\n(NI-2\ntp38\nssg21\nF1274367375.126766\nsg22\n(dp39\nS'astigmatic'\np40\ng25\n(S'Variable_Type'\n(I1\nttRp41\nsS'tear_rate'\np42\ng25\n(S'Variable_Type'\n(I1\nttRp43\nsS'age'\np44\ng25\n(S'Variable_Type'\n(I1\nttRp45\nsS'prescription'\np46\ng25\n(S'Variable_Type'\n(I1\nttRp47\nsS'lenses'\np48\ng25\n(S'Variable_Type'\n(I1\nttRp49\nssg31\n(lp50\ng33\nasbag34\nag34\nag34\nag34\nag34\nag34\nag34\nag34\nag34\nag34\nag34\nag34\nag34\nag34\nag34\nag34\nag34\nag34\nag34\nag34\nag34\nag34\nag34\nag34\nag34\nag34\nag34\nag34\nag34\nag34\na(iOWContexts\nContext\np51\n(dp52\nS'values'\np53\n(dp54\nS'varA'\np55\n(corange\n__pickleLoaderVariable\np56\n(corange\nStringVariable\np57\n(dp58\nS'defaultMetaId'\np59\nI-2\nsS'randomGenerator'\np60\nNsS'ordered'\np61\nI0\nsS'name'\np62\nS'gene'\np63\nsS'sourceVariable'\np64\nNsS'getValueFrom'\np65\nNsS'distributed'\np66\nI0\nsS'varType'\np67\nI6\nsS'attributes'\np68\n(dp69\nstRp70\nI-2\ntp71\nssS'attributes'\np72\n(dp73\nS'Elu 270'\np74\ng25\n(S'Variable_Type'\n(I2\nttRp75\nsS'spo5 7'\np76\ng25\n(S'Variable_Type'\n(I2\nttRp77\nsS'alpha 0'\np78\ng25\n(S'Variable_Type'\n(I2\nttRp79\nsS'alpha 56'\np80\ng25\n(S'Variable_Type'\n(I2\nttRp81\nsS'Elu 210'\np82\ng25\n(S'Variable_Type'\n(I2\nttRp83\nsS'cold 40'\np84\ng25\n(S'Variable_Type'\n(I2\nttRp85\nsS'Elu 60'\np86\ng25\n(S'Variable_Type'\n(I2\nttRp87\nsS'Elu 330'\np88\ng25\n(S'Variable_Type'\n(I2\nttRp89\nsS'cold 0'\np90\ng25\n(S'Variable_Type'\n(I2\nttRp91\nsS'spo- mid'\np92\ng25\n(S'Variable_Type'\n(I2\nttRp93\nsS'dtt 15'\np94\ng25\n(S'Variable_Type'\n(I2\nttRp95\nsS'spo 9'\np96\ng25\n(S'Variable_Type'\n(I2\nttRp97\nsS'alpha 91'\np98\ng25\n(S'Variable_Type'\n(I2\nttRp99\nsS'alpha 112'\np100\ng25\n(S'Variable_Type'\n(I2\nttRp101\nsS'alpha 105'\np102\ng25\n(S'Variable_Type'\n(I2\nttRp103\nsS'dtt 30'\np104\ng25\n(S'Variable_Type'\n(I2\nttRp105\nsS'alpha 98'\np106\ng25\n(S'Variable_Type'\n(I2\nttRp107\nsS'Elu 150'\np108\ng25\n(S'Variable_Type'\n(I2\nttRp109\nsS'cold 20'\np110\ng25\n(S'Variable_Type'\n(I2\nttRp111\nsS'spo5 2'\np112\ng25\n(S'Variable_Type'\n(I2\nttRp113\nsS'Elu 390'\np114\ng25\n(S'Variable_Type'\n(I2\nttRp115\nsS'alpha 7'\np116\ng25\n(S'Variable_Type'\n(I2\nttRp117\nsS'heat 80'\np118\ng25\n(S'Variable_Type'\n(I2\nttRp119\nsS'diau a'\np120\ng25\n(S'Variable_Type'\n(I2\nttRp121\nsS'diau c'\np122\ng25\n(S'Variable_Type'\n(I2\nttRp123\nsS'diau b'\np124\ng25\n(S'Variable_Type'\n(I2\nttRp125\nsS'diau e'\np126\ng25\n(S'Variable_Type'\n(I2\nttRp127\nsS'diau d'\np128\ng25\n(S'Variable_Type'\n(I2\nttRp129\nsS'spo5 11'\np130\ng25\n(S'Variable_Type'\n(I2\nttRp131\nsS'diau f'\np132\ng25\n(S'Variable_Type'\n(I2\nttRp133\nsS'cold 160'\np134\ng25\n(S'Variable_Type'\n(I2\nttRp135\nsS'alpha 28'\np136\ng25\n(S'Variable_Type'\n(I2\nttRp137\nsS'Elu 30'\np138\ng25\n(S'Variable_Type'\n(I2\nttRp139\nsS'function'\np140\ng25\n(S'Variable_Type'\n(I1\nttRp141\nsS'heat 40'\np142\ng25\n(S'Variable_Type'\n(I2\nttRp143\nsS'alpha 42'\np144\ng25\n(S'Variable_Type'\n(I2\nttRp145\nsS'cdc15 170'\np146\ng25\n(S'Variable_Type'\n(I2\nttRp147\nsS'alpha 63'\np148\ng25\n(S'Variable_Type'\n(I2\nttRp149\nsS'Elu 360'\np150\ng25\n(S'Variable_Type'\n(I2\nttRp151\nsS'heat 160'\np152\ng25\n(S'Variable_Type'\n(I2\nttRp153\nsS'dtt 120'\np154\ng25\n(S'Variable_Type'\n(I2\nttRp155\nsS'alpha 49'\np156\ng25\n(S'Variable_Type'\n(I2\nttRp157\nsS'Elu 180'\np158\ng25\n(S'Variable_Type'\n(I2\nttRp159\nsS'heat 20'\np160\ng25\n(S'Variable_Type'\n(I2\nttRp161\nsS'Elu 240'\np162\ng25\n(S'Variable_Type'\n(I2\nttRp163\nsS'cdc15 150'\np164\ng25\n(S'Variable_Type'\n(I2\nttRp165\nsS'alpha 84'\np166\ng25\n(S'Variable_Type'\n(I2\nttRp167\nsS'cdc15 110'\np168\ng25\n(S'Variable_Type'\n(I2\nttRp169\nsS'cdc15 290'\np170\ng25\n(S'Variable_Type'\n(I2\nttRp171\nsS'alpha 119'\np172\ng25\n(S'Variable_Type'\n(I2\nttRp173\nsS'cdc15 30'\np174\ng25\n(S'Variable_Type'\n(I2\nttRp175\nsS'cdc15 130'\np176\ng25\n(S'Variable_Type'\n(I2\nttRp177\nsS'spo 11'\np178\ng25\n(S'Variable_Type'\n(I2\nttRp179\nsS'Elu 90'\np180\ng25\n(S'Variable_Type'\n(I2\nttRp181\nsS'cdc15 270'\np182\ng25\n(S'Variable_Type'\n(I2\nttRp183\nsS'diau g'\np184\ng25\n(S'Variable_Type'\n(I2\nttRp185\nsS'cdc15 230'\np186\ng25\n(S'Variable_Type'\n(I2\nttRp187\nsS'spo 0'\np188\ng25\n(S'Variable_Type'\n(I2\nttRp189\nsS'spo 2'\np190\ng25\n(S'Variable_Type'\n(I2\nttRp191\nsS'spo 5'\np192\ng25\n(S'Variable_Type'\n(I2\nttRp193\nsS'spo 7'\np194\ng25\n(S'Variable_Type'\n(I2\nttRp195\nsS'cdc15 250'\np196\ng25\n(S'Variable_Type'\n(I2\nttRp197\nsS'Elu 120'\np198\ng25\n(S'Variable_Type'\n(I2\nttRp199\nsS'Elu 0'\np200\ng25\n(S'Variable_Type'\n(I2\nttRp201\nsS'cdc15 90'\np202\ng25\n(S'Variable_Type'\n(I2\nttRp203\nsS'cdc15 190'\np204\ng25\n(S'Variable_Type'\n(I2\nttRp205\nsS'Elu 300'\np206\ng25\n(S'Variable_Type'\n(I2\nttRp207\nsS'cdc15 50'\np208\ng25\n(S'Variable_Type'\n(I2\nttRp209\nsS'alpha 35'\np210\ng25\n(S'Variable_Type'\n(I2\nttRp211\nsS'cdc15 10'\np212\ng25\n(S'Variable_Type'\n(I2\nttRp213\nsS'spo- early'\np214\ng25\n(S'Variable_Type'\n(I2\nttRp215\nsS'heat 10'\np216\ng25\n(S'Variable_Type'\n(I2\nttRp217\nsS'heat 0'\np218\ng25\n(S'Variable_Type'\n(I2\nttRp219\nsS'cdc15 210'\np220\ng25\n(S'Variable_Type'\n(I2\nttRp221\nsS'cdc15 70'\np222\ng25\n(S'Variable_Type'\n(I2\nttRp223\nsS'alpha 70'\np224\ng25\n(S'Variable_Type'\n(I2\nttRp225\nsS'alpha 14'\np226\ng25\n(S'Variable_Type'\n(I2\nttRp227\nsS'dtt 60'\np228\ng25\n(S'Variable_Type'\n(I2\nttRp229\nsS'alpha 77'\np230\ng25\n(S'Variable_Type'\n(I2\nttRp231\nsS'alpha 21'\np232\ng25\n(S'Variable_Type'\n(I2\nttRp233\nssS'metas'\np234\n(dp235\nsS'noCopy'\np236\n(lp237\nS'orderedDomain'\np238\nasS'time'\np239\nF1274189303.718812\nsbag51\nag51\nag51\nag51\nag51\nasS'localContextsB'\np240\n(lp241\n(iOWContexts\nContext\np242\n(dp243\ng15\n(dp244\nsg17\n(dp245\nS'varB'\np246\n(NI-2\ntp247\nssg21\nF1274367441.130048\nsg22\n(dp248\nS'astigmatic'\np249\ng25\n(S'Variable_Type'\n(I1\nttRp250\nsS'tear_rate'\np251\ng25\n(S'Variable_Type'\n(I1\nttRp252\nsS'prescription'\np253\ng25\n(S'Variable_Type'\n(I1\nttRp254\nssg31\n(lp255\ng33\nasbag242\nag242\nag242\nag242\nag242\nag242\nag242\nag242\nag242\nag242\nag242\na(iOWContexts\nContext\np256\n(dp257\ng15\n(dp258\nsg17\n(dp259\ng246\n(NI-2\ntp260\nssg21\nF1274367382.0451469\nsg22\n(dp261\nS'astigmatic'\np262\ng25\n(S'Variable_Type'\n(I1\nttRp263\nsS'tear_rate'\np264\ng25\n(S'Variable_Type'\n(I1\nttRp265\nsS'age'\np266\ng25\n(S'Variable_Type'\n(I1\nttRp267\nsS'prescription'\np268\ng25\n(S'Variable_Type'\n(I1\nttRp269\nsS'lenses'\np270\ng25\n(S'Variable_Type'\n(I1\nttRp271\nssg31\n(lp272\ng33\nasbag256\nag256\nag256\nag256\nag256\nag256\nag256\nag256\nag256\nag256\nag256\nag256\nag256\nag256\nag256\nag256\nag256\nag256\nag256\nag256\nag256\nag256\nag256\nag256\nag256\nag256\nag256\nag256\na(iOWContexts\nContext\np273\n(dp274\nS'values'\np275\n(dp276\nS'varB'\np277\n(g56\n(g57\n(dp278\ng59\nI0\nsg60\nNsg61\nI0\nsg62\nS'Ensembl Gene ID'\np279\nsg64\nNsg65\nNsg66\nI0\nsg67\nI6\nsg68\n(dp280\nstRp281\nI-2\ntp282\nssS'attributes'\np283\n(dp284\nS'Ensembl Gene ID'\np285\ng25\n(S'Variable_Type'\n(I6\nttRp286\nsS'Associated Gene Name'\np287\ng25\n(S'Variable_Type'\n(I6\nttRp288\nssS'metas'\np289\n(dp290\nsS'noCopy'\np291\n(lp292\nS'orderedDomain'\np293\nasS'time'\np294\nF1274189469.7660489\nsbag273\nag273\nag273\nag273\nag273\nag273\nag273\nag273\nas."
p11
sS'File'
p12
S"(dp1\nS'widgetHeight'\np2\nI511\nsS'widgetXPosition'\np3\nI723\nsS'widgetYPosition'\np4\nI216\nsS'widgetShown'\np5\nI0\nsS'showAdvanced'\np6\nI01\nsS'createNewOn'\np7\nI3\nsS'widgetWidth'\np8\nI614\nsS'localContextsVersion'\np9\n(I100\nI0\ntp10\nsS'localContexts'\np11\n(lp12\n(iOWContexts\nContext\np13\n(dp14\nS'symbolDC'\np15\nS''\nsS'symbolDK'\np16\nS''\nsS'filename'\np17\nS'/Users/aleserjavec/Documents/workspace/orange/doc/datasets/lenses.tab'\np18\nsS'time'\np19\nF1273759344.255486\nsba(iOWContexts\nContext\np20\n(dp21\nS'symbolDC'\np22\nS''\nsS'symbolDK'\np23\nS''\nsS'filename'\np24\nS'/Users/aleserjavec/Documents/workspace/widgetDebugging/datasets/always_unknown_attribute___values_defined.tab'\np25\nsS'time'\np26\nF1274365369.3379459\nsba(iOWContexts\nContext\np27\n(dp28\nS'symbolDK'\np29\nS''\nsS'symbolDC'\np30\nS''\nsS'time'\np31\nF1273836059.7632401\nsS'filename'\np32\nS'/Users/aleserjavec/Documents/workspace/widgetDebugging/datasets/always_unknown_attribute.tab'\np33\nsba(iOWContexts\nContext\np34\n(dp35\nS'symbolDK'\np36\nS''\nsS'symbolDC'\np37\nS''\nsS'time'\np38\nF1273831984.923425\nsS'filename'\np39\nS'/Users/aleserjavec/Documents/workspace/widgetDebugging/datasets/always_unknown_attribute___continuous.tab'\np40\nsba(iOWContexts\nContext\np41\n(dp42\nS'symbolDK'\np43\nS''\nsS'symbolDC'\np44\nS''\nsS'time'\np45\nF1273763872.2556391\nsS'filename'\np46\nS'/Users/aleserjavec/Documents/workspace/orange/doc/datasets/iris.tab'\np47\nsba(iOWContexts\nContext\np48\n(dp49\nS'symbolDK'\np50\nS''\nsS'symbolDC'\np51\nS''\nsS'time'\np52\nF1274364467.7309\nsS'filename'\np53\nS''\nsba(iOWContexts\nContext\np54\n(dp55\nS'symbolDC'\np56\nS''\nsS'symbolDK'\np57\nS''\nsS'filename'\np58\nS''\nsS'time'\np59\nF1274363029.8630769\nsba(iOWContexts\nContext\np60\n(dp61\ng56\nS''\nsg57\nS''\nsg58\nS''\nsg59\nF1274363002.971807\nsba(iOWContexts\nContext\np62\n(dp63\nS'symbolDK'\np64\nS''\nsS'symbolDC'\np65\nS''\nsS'time'\np66\nF1274095739.5626481\nsS'filename'\np67\nS'/Users/aleserjavec/Documents/workspace/widgetDebugging/datasets/always_unknown_attribute___continuous-noclass.tab'\np68\nsba(iOWContexts\nContext\np69\n(dp70\nS'symbolDC'\np71\nS''\nsS'symbolDK'\np72\nS''\nsS'filename'\np73\nS'/Users/aleserjavec/Documents/workspace/orange/doc/datasets/voting.tab'\np74\nsS'time'\np75\nF1274353980.862107\nsba(iOWContexts\nContext\np76\n(dp77\nS'symbolDK'\np78\nS''\nsS'symbolDC'\np79\nS''\nsS'time'\np80\nF1274196335.577399\nsS'filename'\np81\nS'/Users/aleserjavec/Documents/workspace/widgetDebugging/datasets/constant_class___continuous.tab'\np82\nsba(iOWContexts\nContext\np83\n(dp84\nS'symbolDC'\np85\nS''\nsS'symbolDK'\np86\nS''\nsS'filename'\np87\nS'/Users/aleserjavec/Documents/workspace/widgetDebugging/datasets/cont_attribute___always_unknown_class___continuous.tab'\np88\nsS'time'\np89\nF1273761808.4910359\nsba(iOWContexts\nContext\np90\n(dp91\nS'symbolDK'\np92\nS''\nsS'symbolDC'\np93\nS''\nsS'time'\np94\nF1274103248.737484\nsS'filename'\np95\nS'/Users/aleserjavec/Documents/workspace/widgetDebugging/datasets/constant_attribute___continuous.tab'\np96\nsba(iOWContexts\nContext\np97\n(dp98\ng64\nS''\nsg65\nS''\nsg66\nF1274095643.0451469\nsg67\nS'/Users/aleserjavec/Documents/workspace/widgetDebugging/datasets/always_unknown_attribute-noclass.tab'\np99\nsba(iOWContexts\nContext\np100\n(dp101\nS'symbolDK'\np102\nS''\nsS'symbolDC'\np103\nS''\nsS'time'\np104\nF1273842711.154882\nsS'filename'\np105\nS'/Users/aleserjavec/Documents/workspace/widgetDebugging/datasets/breastcancer2004.tab'\np106\nsba(iOWContexts\nContext\np107\n(dp108\nS'symbolDC'\np109\nS''\nsS'symbolDK'\np110\nS''\nsS'filename'\np111\nS'/Users/aleserjavec/Documents/workspace/orange/doc/datasets/brown-selected.tab'\np112\nsS'time'\np113\nF1273483403.8679171\nsba(iOWContexts\nContext\np114\n(dp115\nS'symbolDK'\np116\nS''\nsS'symbolDC'\np117\nS''\nsS'time'\np118\nF1274098894.4688139\nsS'filename'\np119\nS'/Users/aleserjavec/Documents/workspace/widgetDebugging/datasets/constant_attribute-noclass.tab'\np120\nsba(iOWContexts\nContext\np121\n(dp122\nS'symbolDK'\np123\nS''\nsS'symbolDC'\np124\nS''\nsS'time'\np125\nF1273838506.632822\nsS'filename'\np126\nS'/Users/aleserjavec/Documents/workspace/widgetDebugging/datasets/constant_class.tab'\np127\nsba(iOWContexts\nContext\np128\n(dp129\nS'symbolDC'\np130\nS''\nsS'symbolDK'\np131\nS''\nsS'filename'\np132\nS'/Users/aleserjavec/Documents/workspace/widgetDebugging/datasets/constant_class___values_defined.tab'\np133\nsS'time'\np134\nF1273840518.6345339\nsba(iOWContexts\nContext\np135\n(dp136\nS'symbolDK'\np137\nS''\nsS'symbolDC'\np138\nS''\nsS'time'\np139\nF1273755093.9877031\nsS'filename'\np140\nS'/Users/aleserjavec/Documents/workspace/widgetDebugging/datasets/two_valued_attribute___continuous.tab'\np141\nsba(iOWContexts\nContext\np142\n(dp143\ng137\nS''\nsg138\nS''\nsg139\nF1273755036.0459321\nsg140\nS''\nsba(iOWContexts\nContext\np144\n(dp145\nS'symbolDK'\np146\nS''\nsS'symbolDC'\np147\nS''\nsS'time'\np148\nF1196689968.171\nsS'filename'\np149\nS'E:/Development/Orange Datasets/UCI/zoo.tab'\np150\nsba(iOWContexts\nContext\np151\n(dp152\nS'symbolDC'\np153\nS''\nsS'symbolDK'\np154\nS''\nsS'filename'\np155\nS'E:/Development/Orange Datasets/Blaz/05-cur-w-calc.tab'\np156\nsS'time'\np157\nF1196689758.171\nsbasS'recentFiles'\np158\n(lp159\ng18\nag25\nag33\nag40\nag47\naS'/Users/aleserjavec/Documents/workspace/widgetDebugging/datasets/wine-noclass.tab'\np160\nag68\nag74\nag82\nag88\nag96\nag99\nag106\nag112\naS'/Users/aleserjavec/Documents/workspace/widgetDebugging/datasets/constant_attribute-noclass.tab'\np161\naS'/Users/aleserjavec/Documents/workspace/widgetDebugging/datasets/constant_class.tab'\np162\naS'/Users/aleserjavec/Documents/workspace/widgetDebugging/datasets/constant_class___values_defined.tab'\np163\naS'/Users/aleserjavec/Documents/workspace/widgetDebugging/datasets/two_valued_attribute___continuous.tab'\np164\nas."
p13
sS'Select Attributes'
p14
S"(dp1\nS'widgetHeight'\np2\nI636\nsS'widgetXPosition'\np3\nI451\nsS'widgetYPosition'\np4\nI31\nsS'widgetShown'\np5\nI0\nsS'widgetWidth'\np6\nI662\nsS'localContextsVersion'\np7\n(I100\nI0\ntp8\nsS'localContexts'\np9\n(lp10\n(iOWContexts\nContext\np11\n(dp12\nS'values'\np13\n(dp14\nS'selectedMeta'\np15\n(lp16\nsS'metaAttributes'\np17\n(lp18\nsS'selectedChosen'\np19\n(lp20\nsS'chosenAttributes'\np21\n(lp22\n(S'prescription'\ncorange\n__pickleLoaderNamedConstants\np23\n(S'Variable_Type'\n(I1\nttRp24\ntp25\na(S'astigmatic'\ng23\n(S'Variable_Type'\n(I1\nttRp26\ntp27\na(S'tear_rate'\ng23\n(S'Variable_Type'\n(I1\nttRp28\ntp29\nasS'classAttribute'\np30\n(lp31\n(S'age'\ng23\n(S'Variable_Type'\n(I2\nttRp32\ntp33\nasS'selectedClass'\np34\n(lp35\nssS'attributes'\np36\n(dp37\nS'astigmatic'\np38\ng23\n(S'Variable_Type'\n(I1\nttRp39\nsS'tear_rate'\np40\ng23\n(S'Variable_Type'\n(I1\nttRp41\nsS'age'\np42\ng23\n(S'Variable_Type'\n(I2\nttRp43\nsS'prescription'\np44\ng23\n(S'Variable_Type'\n(I1\nttRp45\nsS'lenses'\np46\ng23\n(S'Variable_Type'\n(I2\nttRp47\nssS'metas'\np48\n(dp49\nsS'noCopy'\np50\n(lp51\nS'orderedDomain'\np52\nasS'time'\np53\nF1274261942.2411349\nsbag11\nag11\nag11\nag11\nag11\nag11\nag11\nag11\nag11\nag11\nag11\nag11\nag11\nag11\nag11\nag11\nag11\nag11\nag11\nag11\nag11\nag11\nag11\nag11\nag11\nag11\nag11\nag11\nag11\nag11\nag11\nag11\nag11\nag11\nag11\nag11\nag11\nag11\nag11\nag11\nag11\nag11\nag11\nag11\nag11\nag11\nag11\nag11\nag11\nas."
p15
sS'Concatenate (2)'
p16
S"(dp1\nS'mergeAttributes'\np2\nI0\nsS'dataSourceName'\np3\nS'clusterId'\np4\nsS'dataSourceSelected'\np5\nI1\nsS'addIdAs'\np6\nI0\nsS'widgetXPosition'\np7\nI430\nsS'widgetYPosition'\np8\nI235\nsS'widgetShown'\np9\nI0\nsS'widgetWidth'\np10\nI575\nsS'widgetHeight'\np11\nI430\ns."
p17
sS'Merge Data'
p18
S"(dp1\nS'widgetHeight'\np2\nI500\nsS'widgetXPosition'\np3\nI494\nsS'widgetYPosition'\np4\nI200\nsS'widgetShown'\np5\nI0\nsS'widgetWidth'\np6\nI400\nsS'localContextsBVersion'\np7\n(I100\nI0\ntp8\nsS'localContextsAVersion'\np9\n(I100\nI0\ntp10\nsS'localContextsA'\np11\n(lp12\n(iOWContexts\nContext\np13\n(dp14\nS'metas'\np15\n(dp16\nsS'values'\np17\n(dp18\nS'varA'\np19\n(NI-2\ntp20\nssS'time'\np21\nF1274367437.9001329\nsS'attributes'\np22\n(dp23\nS'astigmatic'\np24\ncorange\n__pickleLoaderNamedConstants\np25\n(S'Variable_Type'\n(I1\nttRp26\nsS'tear_rate'\np27\ng25\n(S'Variable_Type'\n(I1\nttRp28\nsS'prescription'\np29\ng25\n(S'Variable_Type'\n(I1\nttRp30\nssS'noCopy'\np31\n(lp32\nS'orderedDomain'\np33\nasbag13\nag13\nag13\nag13\nag13\nag13\nag13\nag13\nag13\nag13\nag13\na(iOWContexts\nContext\np34\n(dp35\ng15\n(dp36\nsg17\n(dp37\ng19\n(NI-2\ntp38\nssg21\nF1274367375.126766\nsg22\n(dp39\nS'astigmatic'\np40\ng25\n(S'Variable_Type'\n(I1\nttRp41\nsS'tear_rate'\np42\ng25\n(S'Variable_Type'\n(I1\nttRp43\nsS'age'\np44\ng25\n(S'Variable_Type'\n(I1\nttRp45\nsS'prescription'\np46\ng25\n(S'Variable_Type'\n(I1\nttRp47\nsS'lenses'\np48\ng25\n(S'Variable_Type'\n(I1\nttRp49\nssg31\n(lp50\ng33\nasbag34\nag34\nag34\nag34\nag34\nag34\nag34\nag34\nag34\nag34\nag34\nag34\nag34\nag34\nag34\nag34\nag34\nag34\nag34\nag34\nag34\nag34\nag34\nag34\nag34\nag34\nag34\nag34\nag34\nag34\na(iOWContexts\nContext\np51\n(dp52\nS'values'\np53\n(dp54\nS'varA'\np55\n(corange\n__pickleLoaderVariable\np56\n(corange\nStringVariable\np57\n(dp58\nS'defaultMetaId'\np59\nI-2\nsS'randomGenerator'\np60\nNsS'ordered'\np61\nI0\nsS'name'\np62\nS'gene'\np63\nsS'sourceVariable'\np64\nNsS'getValueFrom'\np65\nNsS'distributed'\np66\nI0\nsS'varType'\np67\nI6\nsS'attributes'\np68\n(dp69\nstRp70\nI-2\ntp71\nssS'attributes'\np72\n(dp73\nS'Elu 270'\np74\ng25\n(S'Variable_Type'\n(I2\nttRp75\nsS'spo5 7'\np76\ng25\n(S'Variable_Type'\n(I2\nttRp77\nsS'alpha 0'\np78\ng25\n(S'Variable_Type'\n(I2\nttRp79\nsS'alpha 56'\np80\ng25\n(S'Variable_Type'\n(I2\nttRp81\nsS'Elu 210'\np82\ng25\n(S'Variable_Type'\n(I2\nttRp83\nsS'cold 40'\np84\ng25\n(S'Variable_Type'\n(I2\nttRp85\nsS'Elu 60'\np86\ng25\n(S'Variable_Type'\n(I2\nttRp87\nsS'Elu 330'\np88\ng25\n(S'Variable_Type'\n(I2\nttRp89\nsS'cold 0'\np90\ng25\n(S'Variable_Type'\n(I2\nttRp91\nsS'spo- mid'\np92\ng25\n(S'Variable_Type'\n(I2\nttRp93\nsS'dtt 15'\np94\ng25\n(S'Variable_Type'\n(I2\nttRp95\nsS'spo 9'\np96\ng25\n(S'Variable_Type'\n(I2\nttRp97\nsS'alpha 91'\np98\ng25\n(S'Variable_Type'\n(I2\nttRp99\nsS'alpha 112'\np100\ng25\n(S'Variable_Type'\n(I2\nttRp101\nsS'alpha 105'\np102\ng25\n(S'Variable_Type'\n(I2\nttRp103\nsS'dtt 30'\np104\ng25\n(S'Variable_Type'\n(I2\nttRp105\nsS'alpha 98'\np106\ng25\n(S'Variable_Type'\n(I2\nttRp107\nsS'Elu 150'\np108\ng25\n(S'Variable_Type'\n(I2\nttRp109\nsS'cold 20'\np110\ng25\n(S'Variable_Type'\n(I2\nttRp111\nsS'spo5 2'\np112\ng25\n(S'Variable_Type'\n(I2\nttRp113\nsS'Elu 390'\np114\ng25\n(S'Variable_Type'\n(I2\nttRp115\nsS'alpha 7'\np116\ng25\n(S'Variable_Type'\n(I2\nttRp117\nsS'heat 80'\np118\ng25\n(S'Variable_Type'\n(I2\nttRp119\nsS'diau a'\np120\ng25\n(S'Variable_Type'\n(I2\nttRp121\nsS'diau c'\np122\ng25\n(S'Variable_Type'\n(I2\nttRp123\nsS'diau b'\np124\ng25\n(S'Variable_Type'\n(I2\nttRp125\nsS'diau e'\np126\ng25\n(S'Variable_Type'\n(I2\nttRp127\nsS'diau d'\np128\ng25\n(S'Variable_Type'\n(I2\nttRp129\nsS'spo5 11'\np130\ng25\n(S'Variable_Type'\n(I2\nttRp131\nsS'diau f'\np132\ng25\n(S'Variable_Type'\n(I2\nttRp133\nsS'cold 160'\np134\ng25\n(S'Variable_Type'\n(I2\nttRp135\nsS'alpha 28'\np136\ng25\n(S'Variable_Type'\n(I2\nttRp137\nsS'Elu 30'\np138\ng25\n(S'Variable_Type'\n(I2\nttRp139\nsS'function'\np140\ng25\n(S'Variable_Type'\n(I1\nttRp141\nsS'heat 40'\np142\ng25\n(S'Variable_Type'\n(I2\nttRp143\nsS'alpha 42'\np144\ng25\n(S'Variable_Type'\n(I2\nttRp145\nsS'cdc15 170'\np146\ng25\n(S'Variable_Type'\n(I2\nttRp147\nsS'alpha 63'\np148\ng25\n(S'Variable_Type'\n(I2\nttRp149\nsS'Elu 360'\np150\ng25\n(S'Variable_Type'\n(I2\nttRp151\nsS'heat 160'\np152\ng25\n(S'Variable_Type'\n(I2\nttRp153\nsS'dtt 120'\np154\ng25\n(S'Variable_Type'\n(I2\nttRp155\nsS'alpha 49'\np156\ng25\n(S'Variable_Type'\n(I2\nttRp157\nsS'Elu 180'\np158\ng25\n(S'Variable_Type'\n(I2\nttRp159\nsS'heat 20'\np160\ng25\n(S'Variable_Type'\n(I2\nttRp161\nsS'Elu 240'\np162\ng25\n(S'Variable_Type'\n(I2\nttRp163\nsS'cdc15 150'\np164\ng25\n(S'Variable_Type'\n(I2\nttRp165\nsS'alpha 84'\np166\ng25\n(S'Variable_Type'\n(I2\nttRp167\nsS'cdc15 110'\np168\ng25\n(S'Variable_Type'\n(I2\nttRp169\nsS'cdc15 290'\np170\ng25\n(S'Variable_Type'\n(I2\nttRp171\nsS'alpha 119'\np172\ng25\n(S'Variable_Type'\n(I2\nttRp173\nsS'cdc15 30'\np174\ng25\n(S'Variable_Type'\n(I2\nttRp175\nsS'cdc15 130'\np176\ng25\n(S'Variable_Type'\n(I2\nttRp177\nsS'spo 11'\np178\ng25\n(S'Variable_Type'\n(I2\nttRp179\nsS'Elu 90'\np180\ng25\n(S'Variable_Type'\n(I2\nttRp181\nsS'cdc15 270'\np182\ng25\n(S'Variable_Type'\n(I2\nttRp183\nsS'diau g'\np184\ng25\n(S'Variable_Type'\n(I2\nttRp185\nsS'cdc15 230'\np186\ng25\n(S'Variable_Type'\n(I2\nttRp187\nsS'spo 0'\np188\ng25\n(S'Variable_Type'\n(I2\nttRp189\nsS'spo 2'\np190\ng25\n(S'Variable_Type'\n(I2\nttRp191\nsS'spo 5'\np192\ng25\n(S'Variable_Type'\n(I2\nttRp193\nsS'spo 7'\np194\ng25\n(S'Variable_Type'\n(I2\nttRp195\nsS'cdc15 250'\np196\ng25\n(S'Variable_Type'\n(I2\nttRp197\nsS'Elu 120'\np198\ng25\n(S'Variable_Type'\n(I2\nttRp199\nsS'Elu 0'\np200\ng25\n(S'Variable_Type'\n(I2\nttRp201\nsS'cdc15 90'\np202\ng25\n(S'Variable_Type'\n(I2\nttRp203\nsS'cdc15 190'\np204\ng25\n(S'Variable_Type'\n(I2\nttRp205\nsS'Elu 300'\np206\ng25\n(S'Variable_Type'\n(I2\nttRp207\nsS'cdc15 50'\np208\ng25\n(S'Variable_Type'\n(I2\nttRp209\nsS'alpha 35'\np210\ng25\n(S'Variable_Type'\n(I2\nttRp211\nsS'cdc15 10'\np212\ng25\n(S'Variable_Type'\n(I2\nttRp213\nsS'spo- early'\np214\ng25\n(S'Variable_Type'\n(I2\nttRp215\nsS'heat 10'\np216\ng25\n(S'Variable_Type'\n(I2\nttRp217\nsS'heat 0'\np218\ng25\n(S'Variable_Type'\n(I2\nttRp219\nsS'cdc15 210'\np220\ng25\n(S'Variable_Type'\n(I2\nttRp221\nsS'cdc15 70'\np222\ng25\n(S'Variable_Type'\n(I2\nttRp223\nsS'alpha 70'\np224\ng25\n(S'Variable_Type'\n(I2\nttRp225\nsS'alpha 14'\np226\ng25\n(S'Variable_Type'\n(I2\nttRp227\nsS'dtt 60'\np228\ng25\n(S'Variable_Type'\n(I2\nttRp229\nsS'alpha 77'\np230\ng25\n(S'Variable_Type'\n(I2\nttRp231\nsS'alpha 21'\np232\ng25\n(S'Variable_Type'\n(I2\nttRp233\nssS'metas'\np234\n(dp235\nsS'noCopy'\np236\n(lp237\nS'orderedDomain'\np238\nasS'time'\np239\nF1274189303.718812\nsbag51\nag51\nag51\nag51\nag51\nag51\nasS'localContextsB'\np240\n(lp241\n(iOWContexts\nContext\np242\n(dp243\ng15\n(dp244\nsg17\n(dp245\nS'varB'\np246\n(NI-2\ntp247\nssg21\nF1274367441.130048\nsg22\n(dp248\nS'astigmatic'\np249\ng25\n(S'Variable_Type'\n(I1\nttRp250\nsS'tear_rate'\np251\ng25\n(S'Variable_Type'\n(I1\nttRp252\nsS'prescription'\np253\ng25\n(S'Variable_Type'\n(I1\nttRp254\nssg31\n(lp255\ng33\nasbag242\nag242\nag242\nag242\nag242\nag242\nag242\nag242\nag242\nag242\na(iOWContexts\nContext\np256\n(dp257\ng15\n(dp258\nsg17\n(dp259\ng246\n(NI-2\ntp260\nssg21\nF1274367382.0451469\nsg22\n(dp261\nS'astigmatic'\np262\ng25\n(S'Variable_Type'\n(I1\nttRp263\nsS'tear_rate'\np264\ng25\n(S'Variable_Type'\n(I1\nttRp265\nsS'age'\np266\ng25\n(S'Variable_Type'\n(I1\nttRp267\nsS'prescription'\np268\ng25\n(S'Variable_Type'\n(I1\nttRp269\nsS'lenses'\np270\ng25\n(S'Variable_Type'\n(I1\nttRp271\nssg31\n(lp272\ng33\nasbag256\nag256\nag256\nag256\nag256\nag256\nag256\nag256\nag256\nag256\nag256\nag256\nag256\nag256\nag256\nag256\nag256\nag256\nag256\nag256\nag256\nag256\nag256\nag256\nag256\nag256\nag256\nag256\na(iOWContexts\nContext\np273\n(dp274\nS'values'\np275\n(dp276\nS'varB'\np277\n(g56\n(g57\n(dp278\ng59\nI0\nsg60\nNsg61\nI0\nsg62\nS'Ensembl Gene ID'\np279\nsg64\nNsg65\nNsg66\nI0\nsg67\nI6\nsg68\n(dp280\nstRp281\nI-2\ntp282\nssS'attributes'\np283\n(dp284\nS'Ensembl Gene ID'\np285\ng25\n(S'Variable_Type'\n(I6\nttRp286\nsS'Associated Gene Name'\np287\ng25\n(S'Variable_Type'\n(I6\nttRp288\nssS'metas'\np289\n(dp290\nsS'noCopy'\np291\n(lp292\nS'orderedDomain'\np293\nasS'time'\np294\nF1274189469.7660489\nsbag273\nag273\nag273\nag273\nag273\nag273\nag273\nag273\nag273\nas."
p19
sS'File (2)'
p20
S"(dp1\nS'widgetHeight'\np2\nI511\nsS'widgetXPosition'\np3\nI723\nsS'widgetYPosition'\np4\nI216\nsS'widgetShown'\np5\nI0\nsS'showAdvanced'\np6\nI01\nsS'createNewOn'\np7\nI3\nsS'widgetWidth'\np8\nI614\nsS'localContextsVersion'\np9\n(I100\nI0\ntp10\nsS'localContexts'\np11\n(lp12\n(iOWContexts\nContext\np13\n(dp14\nS'symbolDC'\np15\nS''\nsS'symbolDK'\np16\nS''\nsS'filename'\np17\nS'/Users/aleserjavec/Documents/workspace/orange/doc/datasets/lenses.tab'\np18\nsS'time'\np19\nF1273759344.255486\nsba(iOWContexts\nContext\np20\n(dp21\nS'symbolDC'\np22\nS''\nsS'symbolDK'\np23\nS''\nsS'filename'\np24\nS'/Users/aleserjavec/Documents/workspace/widgetDebugging/datasets/always_unknown_attribute___values_defined.tab'\np25\nsS'time'\np26\nF1274365369.3379459\nsba(iOWContexts\nContext\np27\n(dp28\nS'symbolDK'\np29\nS''\nsS'symbolDC'\np30\nS''\nsS'time'\np31\nF1273836059.7632401\nsS'filename'\np32\nS'/Users/aleserjavec/Documents/workspace/widgetDebugging/datasets/always_unknown_attribute.tab'\np33\nsba(iOWContexts\nContext\np34\n(dp35\nS'symbolDK'\np36\nS''\nsS'symbolDC'\np37\nS''\nsS'time'\np38\nF1273831984.923425\nsS'filename'\np39\nS'/Users/aleserjavec/Documents/workspace/widgetDebugging/datasets/always_unknown_attribute___continuous.tab'\np40\nsba(iOWContexts\nContext\np41\n(dp42\nS'symbolDK'\np43\nS''\nsS'symbolDC'\np44\nS''\nsS'time'\np45\nF1273763872.2556391\nsS'filename'\np46\nS'/Users/aleserjavec/Documents/workspace/orange/doc/datasets/iris.tab'\np47\nsba(iOWContexts\nContext\np48\n(dp49\nS'symbolDK'\np50\nS''\nsS'symbolDC'\np51\nS''\nsS'time'\np52\nF1274364467.7309\nsS'filename'\np53\nS''\nsba(iOWContexts\nContext\np54\n(dp55\nS'symbolDC'\np56\nS''\nsS'symbolDK'\np57\nS''\nsS'filename'\np58\nS''\nsS'time'\np59\nF1274363029.8630769\nsba(iOWContexts\nContext\np60\n(dp61\ng56\nS''\nsg57\nS''\nsg58\nS''\nsg59\nF1274363002.971807\nsba(iOWContexts\nContext\np62\n(dp63\nS'symbolDK'\np64\nS''\nsS'symbolDC'\np65\nS''\nsS'time'\np66\nF1274095739.5626481\nsS'filename'\np67\nS'/Users/aleserjavec/Documents/workspace/widgetDebugging/datasets/always_unknown_attribute___continuous-noclass.tab'\np68\nsba(iOWContexts\nContext\np69\n(dp70\nS'symbolDC'\np71\nS''\nsS'symbolDK'\np72\nS''\nsS'filename'\np73\nS'/Users/aleserjavec/Documents/workspace/orange/doc/datasets/voting.tab'\np74\nsS'time'\np75\nF1274353980.862107\nsba(iOWContexts\nContext\np76\n(dp77\nS'symbolDK'\np78\nS''\nsS'symbolDC'\np79\nS''\nsS'time'\np80\nF1274196335.577399\nsS'filename'\np81\nS'/Users/aleserjavec/Documents/workspace/widgetDebugging/datasets/constant_class___continuous.tab'\np82\nsba(iOWContexts\nContext\np83\n(dp84\nS'symbolDC'\np85\nS''\nsS'symbolDK'\np86\nS''\nsS'filename'\np87\nS'/Users/aleserjavec/Documents/workspace/widgetDebugging/datasets/cont_attribute___always_unknown_class___continuous.tab'\np88\nsS'time'\np89\nF1273761808.4910359\nsba(iOWContexts\nContext\np90\n(dp91\nS'symbolDK'\np92\nS''\nsS'symbolDC'\np93\nS''\nsS'time'\np94\nF1274103248.737484\nsS'filename'\np95\nS'/Users/aleserjavec/Documents/workspace/widgetDebugging/datasets/constant_attribute___continuous.tab'\np96\nsba(iOWContexts\nContext\np97\n(dp98\ng64\nS''\nsg65\nS''\nsg66\nF1274095643.0451469\nsg67\nS'/Users/aleserjavec/Documents/workspace/widgetDebugging/datasets/always_unknown_attribute-noclass.tab'\np99\nsba(iOWContexts\nContext\np100\n(dp101\nS'symbolDK'\np102\nS''\nsS'symbolDC'\np103\nS''\nsS'time'\np104\nF1273842711.154882\nsS'filename'\np105\nS'/Users/aleserjavec/Documents/workspace/widgetDebugging/datasets/breastcancer2004.tab'\np106\nsba(iOWContexts\nContext\np107\n(dp108\nS'symbolDC'\np109\nS''\nsS'symbolDK'\np110\nS''\nsS'filename'\np111\nS'/Users/aleserjavec/Documents/workspace/orange/doc/datasets/brown-selected.tab'\np112\nsS'time'\np113\nF1273483403.8679171\nsba(iOWContexts\nContext\np114\n(dp115\nS'symbolDK'\np116\nS''\nsS'symbolDC'\np117\nS''\nsS'time'\np118\nF1274098894.4688139\nsS'filename'\np119\nS'/Users/aleserjavec/Documents/workspace/widgetDebugging/datasets/constant_attribute-noclass.tab'\np120\nsba(iOWContexts\nContext\np121\n(dp122\nS'symbolDK'\np123\nS''\nsS'symbolDC'\np124\nS''\nsS'time'\np125\nF1273838506.632822\nsS'filename'\np126\nS'/Users/aleserjavec/Documents/workspace/widgetDebugging/datasets/constant_class.tab'\np127\nsba(iOWContexts\nContext\np128\n(dp129\nS'symbolDC'\np130\nS''\nsS'symbolDK'\np131\nS''\nsS'filename'\np132\nS'/Users/aleserjavec/Documents/workspace/widgetDebugging/datasets/constant_class___values_defined.tab'\np133\nsS'time'\np134\nF1273840518.6345339\nsba(iOWContexts\nContext\np135\n(dp136\nS'symbolDK'\np137\nS''\nsS'symbolDC'\np138\nS''\nsS'time'\np139\nF1273755093.9877031\nsS'filename'\np140\nS'/Users/aleserjavec/Documents/workspace/widgetDebugging/datasets/two_valued_attribute___continuous.tab'\np141\nsba(iOWContexts\nContext\np142\n(dp143\ng137\nS''\nsg138\nS''\nsg139\nF1273755036.0459321\nsg140\nS''\nsba(iOWContexts\nContext\np144\n(dp145\nS'symbolDK'\np146\nS''\nsS'symbolDC'\np147\nS''\nsS'time'\np148\nF1196689968.171\nsS'filename'\np149\nS'E:/Development/Orange Datasets/UCI/zoo.tab'\np150\nsba(iOWContexts\nContext\np151\n(dp152\nS'symbolDC'\np153\nS''\nsS'symbolDK'\np154\nS''\nsS'filename'\np155\nS'E:/Development/Orange Datasets/Blaz/05-cur-w-calc.tab'\np156\nsS'time'\np157\nF1196689758.171\nsbasS'recentFiles'\np158\n(lp159\nS'/Users/aleserjavec/Documents/workspace/orange/doc/datasets/lenses.tab'\np160\naS'/Users/aleserjavec/Documents/workspace/widgetDebugging/datasets/always_unknown_attribute___values_defined.tab'\np161\naS'/Users/aleserjavec/Documents/workspace/widgetDebugging/datasets/always_unknown_attribute.tab'\np162\naS'/Users/aleserjavec/Documents/workspace/widgetDebugging/datasets/always_unknown_attribute___continuous.tab'\np163\naS'/Users/aleserjavec/Documents/workspace/orange/doc/datasets/iris.tab'\np164\naS'/Users/aleserjavec/Documents/workspace/widgetDebugging/datasets/wine-noclass.tab'\np165\naS'/Users/aleserjavec/Documents/workspace/widgetDebugging/datasets/always_unknown_attribute___continuous-noclass.tab'\np166\naS'/Users/aleserjavec/Documents/workspace/orange/doc/datasets/voting.tab'\np167\naS'/Users/aleserjavec/Documents/workspace/widgetDebugging/datasets/constant_class___continuous.tab'\np168\naS'/Users/aleserjavec/Documents/workspace/widgetDebugging/datasets/cont_attribute___always_unknown_class___continuous.tab'\np169\naS'/Users/aleserjavec/Documents/workspace/widgetDebugging/datasets/constant_attribute___continuous.tab'\np170\naS'/Users/aleserjavec/Documents/workspace/widgetDebugging/datasets/always_unknown_attribute-noclass.tab'\np171\naS'/Users/aleserjavec/Documents/workspace/widgetDebugging/datasets/breastcancer2004.tab'\np172\naS'/Users/aleserjavec/Documents/workspace/orange/doc/datasets/brown-selected.tab'\np173\naS'/Users/aleserjavec/Documents/workspace/widgetDebugging/datasets/constant_attribute-noclass.tab'\np174\naS'/Users/aleserjavec/Documents/workspace/widgetDebugging/datasets/constant_class.tab'\np175\naS'/Users/aleserjavec/Documents/workspace/widgetDebugging/datasets/constant_class___values_defined.tab'\np176\naS'/Users/aleserjavec/Documents/workspace/widgetDebugging/datasets/two_valued_attribute___continuous.tab'\np177\nas."
p21
s.