(dp1
S'Select Attributes'
p2
S"(dp1\nS'widgetHeight'\np2\nI561\nsS'widgetXPosition'\np3\nI452\nsS'widgetYPosition'\np4\nI191\nsS'widgetShown'\np5\nI0\nsS'savedWidgetGeometry'\np6\nS'\\x01\\xd9\\xd0\\xcb\\x00\\x01\\x00\\x00\\x00\\x00\\x01\\xc4\\x00\\x00\\x00\\xbf\\x00\\x00\\x03\\xa1\\x00\\x00\\x03\\x05\\x00\\x00\\x01\\xc4\\x00\\x00\\x00\\xd5\\x00\\x00\\x03\\xa1\\x00\\x00\\x03\\x05\\x00\\x00\\x00\\x00\\x00\\x00'\np7\nsS'widgetWidth'\np8\nI478\nsS'localContextsVersion'\np9\n(I100\nI0\ntp10\nsS'localContexts'\np11\n(lp12\n(iOWContexts\nContext\np13\n(dp14\nS'metas'\np15\n(dp16\nS'gene'\np17\ncorange\n__pickleLoaderNamedConstants\np18\n(S'Variable_Type'\n(I6\nttRp19\nssS'values'\np20\n(dp21\nS'selectedMeta'\np22\n(lp23\nsS'metaAttributes'\np24\n(lp25\n(S'gene'\ng18\n(S'Variable_Type'\n(I6\nttRp26\ntp27\nasS'selectedChosen'\np28\n(lp29\nsS'chosenAttributes'\np30\n(lp31\n(S'diau f'\ng18\n(S'Variable_Type'\n(I2\nttRp32\ntp33\na(S'spo- mid'\ng18\n(S'Variable_Type'\n(I2\nttRp34\ntp35\nasS'classAttribute'\np36\n(lp37\n(S'function'\ng18\n(S'Variable_Type'\n(I1\nttRp38\ntp39\nasS'selectedClass'\np40\n(lp41\nssS'time'\np42\nF1307092009.993288\nsS'attributes'\np43\n(dp44\nS'Elu 270'\np45\ng18\n(S'Variable_Type'\n(I2\nttRp46\nsS'spo5 7'\np47\ng18\n(S'Variable_Type'\n(I2\nttRp48\nsS'Elu 390'\np49\ng18\n(S'Variable_Type'\n(I2\nttRp50\nsS'alpha 56'\np51\ng18\n(S'Variable_Type'\n(I2\nttRp52\nsS'Elu 210'\np53\ng18\n(S'Variable_Type'\n(I2\nttRp54\nsS'Elu 60'\np55\ng18\n(S'Variable_Type'\n(I2\nttRp56\nsS'cold 160'\np57\ng18\n(S'Variable_Type'\n(I2\nttRp58\nsS'Elu 330'\np59\ng18\n(S'Variable_Type'\n(I2\nttRp60\nsS'heat 80'\np61\ng18\n(S'Variable_Type'\n(I2\nttRp62\nsS'cold 0'\np63\ng18\n(S'Variable_Type'\n(I2\nttRp64\nsS'spo- mid'\np65\ng18\n(S'Variable_Type'\n(I2\nttRp66\nsS'dtt 15'\np67\ng18\n(S'Variable_Type'\n(I2\nttRp68\nsS'spo 9'\np69\ng18\n(S'Variable_Type'\n(I2\nttRp70\nsS'alpha 91'\np71\ng18\n(S'Variable_Type'\n(I2\nttRp72\nsS'alpha 112'\np73\ng18\n(S'Variable_Type'\n(I2\nttRp74\nsS'alpha 105'\np75\ng18\n(S'Variable_Type'\n(I2\nttRp76\nsS'dtt 30'\np77\ng18\n(S'Variable_Type'\n(I2\nttRp78\nsS'alpha 98'\np79\ng18\n(S'Variable_Type'\n(I2\nttRp80\nsS'Elu 150'\np81\ng18\n(S'Variable_Type'\n(I2\nttRp82\nsS'cold 20'\np83\ng18\n(S'Variable_Type'\n(I2\nttRp84\nsS'function'\np85\ng18\n(S'Variable_Type'\n(I1\nttRp86\nsS'alpha 0'\np87\ng18\n(S'Variable_Type'\n(I2\nttRp88\nsS'alpha 7'\np89\ng18\n(S'Variable_Type'\n(I2\nttRp90\nsS'spo- early'\np91\ng18\n(S'Variable_Type'\n(I2\nttRp92\nsS'diau a'\np93\ng18\n(S'Variable_Type'\n(I2\nttRp94\nsS'diau b'\np95\ng18\n(S'Variable_Type'\n(I2\nttRp96\nsS'alpha 21'\np97\ng18\n(S'Variable_Type'\n(I2\nttRp98\nsS'diau e'\np99\ng18\n(S'Variable_Type'\n(I2\nttRp100\nsS'diau d'\np101\ng18\n(S'Variable_Type'\n(I2\nttRp102\nsS'spo5 11'\np103\ng18\n(S'Variable_Type'\n(I2\nttRp104\nsS'diau f'\np105\ng18\n(S'Variable_Type'\n(I2\nttRp106\nsS'cdc15 290'\np107\ng18\n(S'Variable_Type'\n(I2\nttRp108\nsS'cold 40'\np109\ng18\n(S'Variable_Type'\n(I2\nttRp110\nsS'alpha 28'\np111\ng18\n(S'Variable_Type'\n(I2\nttRp112\nsS'Elu 30'\np113\ng18\n(S'Variable_Type'\n(I2\nttRp114\nsS'dtt 60'\np115\ng18\n(S'Variable_Type'\n(I2\nttRp116\nsS'Elu 300'\np117\ng18\n(S'Variable_Type'\n(I2\nttRp118\nsS'heat 40'\np119\ng18\n(S'Variable_Type'\n(I2\nttRp120\nsS'alpha 42'\np121\ng18\n(S'Variable_Type'\n(I2\nttRp122\nsS'cdc15 170'\np123\ng18\n(S'Variable_Type'\n(I2\nttRp124\nsS'alpha 63'\np125\ng18\n(S'Variable_Type'\n(I2\nttRp126\nsS'Elu 360'\np127\ng18\n(S'Variable_Type'\n(I2\nttRp128\nsS'heat 160'\np129\ng18\n(S'Variable_Type'\n(I2\nttRp130\nsS'dtt 120'\np131\ng18\n(S'Variable_Type'\n(I2\nttRp132\nsS'alpha 49'\np133\ng18\n(S'Variable_Type'\n(I2\nttRp134\nsS'Elu 180'\np135\ng18\n(S'Variable_Type'\n(I2\nttRp136\nsS'heat 20'\np137\ng18\n(S'Variable_Type'\n(I2\nttRp138\nsS'Elu 240'\np139\ng18\n(S'Variable_Type'\n(I2\nttRp140\nsS'cdc15 150'\np141\ng18\n(S'Variable_Type'\n(I2\nttRp142\nsS'alpha 84'\np143\ng18\n(S'Variable_Type'\n(I2\nttRp144\nsS'cdc15 110'\np145\ng18\n(S'Variable_Type'\n(I2\nttRp146\nsS'alpha 119'\np147\ng18\n(S'Variable_Type'\n(I2\nttRp148\nsS'spo 2'\np149\ng18\n(S'Variable_Type'\n(I2\nttRp150\nsS'cdc15 130'\np151\ng18\n(S'Variable_Type'\n(I2\nttRp152\nsS'spo 11'\np153\ng18\n(S'Variable_Type'\n(I2\nttRp154\nsS'Elu 90'\np155\ng18\n(S'Variable_Type'\n(I2\nttRp156\nsS'cdc15 270'\np157\ng18\n(S'Variable_Type'\n(I2\nttRp158\nsS'diau g'\np159\ng18\n(S'Variable_Type'\n(I2\nttRp160\nsS'cdc15 230'\np161\ng18\n(S'Variable_Type'\n(I2\nttRp162\nsS'spo 0'\np163\ng18\n(S'Variable_Type'\n(I2\nttRp164\nsS'cdc15 30'\np165\ng18\n(S'Variable_Type'\n(I2\nttRp166\nsS'spo 5'\np167\ng18\n(S'Variable_Type'\n(I2\nttRp168\nsS'spo 7'\np169\ng18\n(S'Variable_Type'\n(I2\nttRp170\nsS'cdc15 250'\np171\ng18\n(S'Variable_Type'\n(I2\nttRp172\nsS'diau c'\np173\ng18\n(S'Variable_Type'\n(I2\nttRp174\nsS'Elu 120'\np175\ng18\n(S'Variable_Type'\n(I2\nttRp176\nsS'Elu 0'\np177\ng18\n(S'Variable_Type'\n(I2\nttRp178\nsS'cdc15 90'\np179\ng18\n(S'Variable_Type'\n(I2\nttRp180\nsS'cdc15 190'\np181\ng18\n(S'Variable_Type'\n(I2\nttRp182\nsS'cdc15 50'\np183\ng18\n(S'Variable_Type'\n(I2\nttRp184\nsS'alpha 35'\np185\ng18\n(S'Variable_Type'\n(I2\nttRp186\nsS'cdc15 10'\np187\ng18\n(S'Variable_Type'\n(I2\nttRp188\nsS'spo5 2'\np189\ng18\n(S'Variable_Type'\n(I2\nttRp190\nsS'heat 10'\np191\ng18\n(S'Variable_Type'\n(I2\nttRp192\nsS'heat 0'\np193\ng18\n(S'Variable_Type'\n(I2\nttRp194\nsS'cdc15 70'\np195\ng18\n(S'Variable_Type'\n(I2\nttRp196\nsS'alpha 70'\np197\ng18\n(S'Variable_Type'\n(I2\nttRp198\nsS'alpha 14'\np199\ng18\n(S'Variable_Type'\n(I2\nttRp200\nsS'cdc15 210'\np201\ng18\n(S'Variable_Type'\n(I2\nttRp202\nsS'alpha 77'\np203\ng18\n(S'Variable_Type'\n(I2\nttRp204\nssS'noCopy'\np205\n(lp206\nS'orderedDomain'\np207\nasba(iOWContexts\nContext\np208\n(dp209\nS'values'\np210\n(dp211\nS'selectedMeta'\np212\n(lp213\nsS'metaAttributes'\np214\n(lp215\nsS'selectedChosen'\np216\n(lp217\nsS'chosenAttributes'\np218\n(lp219\n(S'timestamp'\ng18\n(S'Variable_Type'\n(I2\nttRp220\ntp221\nasS'classAttribute'\np222\n(lp223\n(S'time'\ng18\n(S'Variable_Type'\n(I1\nttRp224\ntp225\nasS'selectedClass'\np226\n(lp227\nI0\nassS'attributes'\np228\n(dp229\nS'timestamp'\np230\ng18\n(S'Variable_Type'\n(I2\nttRp231\nsS'time'\np232\ng18\n(S'Variable_Type'\n(I1\nttRp233\nssS'metas'\np234\n(dp235\nsS'noCopy'\np236\n(lp237\nS'orderedDomain'\np238\nasS'time'\np239\nF1306750194.37763\nsba(iOWContexts\nContext\np240\n(dp241\nS'values'\np242\n(dp243\nS'selectedMeta'\np244\n(lp245\nsS'metaAttributes'\np246\n(lp247\nsS'selectedChosen'\np248\n(lp249\nsS'chosenAttributes'\np250\n(lp251\n(S'workclass'\ng18\n(S'Variable_Type'\n(I1\nttRp252\ntp253\na(S'education'\ng18\n(S'Variable_Type'\n(I1\nttRp254\ntp255\na(S'marital-status'\ng18\n(S'Variable_Type'\n(I1\nttRp256\ntp257\na(S'occupation'\ng18\n(S'Variable_Type'\n(I1\nttRp258\ntp259\na(S'relationship'\ng18\n(S'Variable_Type'\n(I1\nttRp260\ntp261\na(S'race'\ng18\n(S'Variable_Type'\n(I1\nttRp262\ntp263\na(S'sex'\ng18\n(S'Variable_Type'\n(I1\nttRp264\ntp265\na(S'native-country'\ng18\n(S'Variable_Type'\n(I1\nttRp266\ntp267\nasS'classAttribute'\np268\n(lp269\n(S'y'\ng18\n(S'Variable_Type'\n(I1\nttRp270\ntp271\nasS'selectedClass'\np272\n(lp273\nssS'attributes'\np274\n(dp275\nS'workclass'\np276\ng18\n(S'Variable_Type'\n(I1\nttRp277\nsS'relationship'\np278\ng18\n(S'Variable_Type'\n(I1\nttRp279\nsS'age'\np280\ng18\n(S'Variable_Type'\n(I2\nttRp281\nsS'capital-gain'\np282\ng18\n(S'Variable_Type'\n(I2\nttRp283\nsS'sex'\np284\ng18\n(S'Variable_Type'\n(I1\nttRp285\nsS'y'\ng18\n(S'Variable_Type'\n(I1\nttRp286\nsS'hours-per-week'\np287\ng18\n(S'Variable_Type'\n(I2\nttRp288\nsS'race'\np289\ng18\n(S'Variable_Type'\n(I1\nttRp290\nsS'native-country'\np291\ng18\n(S'Variable_Type'\n(I1\nttRp292\nsS'education-num'\np293\ng18\n(S'Variable_Type'\n(I2\nttRp294\nsS'capital-loss'\np295\ng18\n(S'Variable_Type'\n(I2\nttRp296\nsS'education'\np297\ng18\n(S'Variable_Type'\n(I1\nttRp298\nsS'fnlwgt'\np299\ng18\n(S'Variable_Type'\n(I2\nttRp300\nsS'marital-status'\np301\ng18\n(S'Variable_Type'\n(I1\nttRp302\nsS'occupation'\np303\ng18\n(S'Variable_Type'\n(I1\nttRp304\nssS'metas'\np305\n(dp306\nsS'noCopy'\np307\n(lp308\nS'orderedDomain'\np309\nasS'time'\np310\nF1306745974.4128721\nsba(iOWContexts\nContext\np311\n(dp312\nS'noCopy'\np313\n(lp314\nS'orderedDomain'\np315\nasS'attributes'\np316\n(dp317\nS'sepal width'\np318\ng18\n(S'Variable_Type'\n(I2\nttRp319\nsS'petal width'\np320\ng18\n(S'Variable_Type'\n(I2\nttRp321\nsS'petal length'\np322\ng18\n(S'Variable_Type'\n(I2\nttRp323\nsS'sepal length'\np324\ng18\n(S'Variable_Type'\n(I2\nttRp325\nsS'iris'\np326\ng18\n(S'Variable_Type'\n(I1\nttRp327\nssS'metas'\np328\n(dp329\nsS'values'\np330\n(dp331\nS'selectedMeta'\np332\n(lp333\nsS'metaAttributes'\np334\n(lp335\n(S'petal length'\ng18\n(S'Variable_Type'\n(I2\nttRp336\ntp337\nasS'selectedChosen'\np338\n(lp339\nsS'chosenAttributes'\np340\n(lp341\n(S'petal width'\ng18\n(S'Variable_Type'\n(I2\nttRp342\ntp343\na(S'sepal length'\ng18\n(S'Variable_Type'\n(I2\nttRp344\ntp345\na(S'sepal width'\ng18\n(S'Variable_Type'\n(I2\nttRp346\ntp347\nasS'classAttribute'\np348\n(lp349\n(S'iris'\ng18\n(S'Variable_Type'\n(I1\nttRp350\ntp351\nasS'selectedClass'\np352\n(lp353\nI0\nassS'time'\np354\nF1305193176.5699019\nsba(iOWContexts\nContext\np355\n(dp356\nS'values'\np357\n(dp358\nS'selectedMeta'\np359\n(lp360\nsS'metaAttributes'\np361\n(lp362\n(S'gene'\ng18\n(S'Variable_Type'\n(I6\nttRp363\ntp364\nasS'selectedChosen'\np365\n(lp366\nsS'chosenAttributes'\np367\n(lp368\n(S'alpha 0'\ng18\n(S'Variable_Type'\n(I2\nttRp369\ntp370\na(S'alpha 7'\ng18\n(S'Variable_Type'\n(I2\nttRp371\ntp372\na(S'alpha 14'\ng18\n(S'Variable_Type'\n(I2\nttRp373\ntp374\na(S'alpha 21'\ng18\n(S'Variable_Type'\n(I2\nttRp375\ntp376\na(S'alpha 28'\ng18\n(S'Variable_Type'\n(I2\nttRp377\ntp378\na(S'alpha 35'\ng18\n(S'Variable_Type'\n(I2\nttRp379\ntp380\na(S'alpha 42'\ng18\n(S'Variable_Type'\n(I2\nttRp381\ntp382\na(S'alpha 49'\ng18\n(S'Variable_Type'\n(I2\nttRp383\ntp384\na(S'alpha 98'\ng18\n(S'Variable_Type'\n(I2\nttRp385\ntp386\na(S'alpha 63'\ng18\n(S'Variable_Type'\n(I2\nttRp387\ntp388\na(S'alpha 105'\ng18\n(S'Variable_Type'\n(I2\nttRp389\ntp390\na(S'alpha 112'\ng18\n(S'Variable_Type'\n(I2\nttRp391\ntp392\na(S'alpha 119'\ng18\n(S'Variable_Type'\n(I2\nttRp393\ntp394\na(S'Elu 0'\ng18\n(S'Variable_Type'\n(I2\nttRp395\ntp396\na(S'Elu 30'\ng18\n(S'Variable_Type'\n(I2\nttRp397\ntp398\na(S'Elu 60'\ng18\n(S'Variable_Type'\n(I2\nttRp399\ntp400\na(S'Elu 90'\ng18\n(S'Variable_Type'\n(I2\nttRp401\ntp402\na(S'Elu 120'\ng18\n(S'Variable_Type'\n(I2\nttRp403\ntp404\na(S'Elu 150'\ng18\n(S'Variable_Type'\n(I2\nttRp405\ntp406\na(S'Elu 180'\ng18\n(S'Variable_Type'\n(I2\nttRp407\ntp408\na(S'Elu 210'\ng18\n(S'Variable_Type'\n(I2\nttRp409\ntp410\na(S'Elu 240'\ng18\n(S'Variable_Type'\n(I2\nttRp411\ntp412\na(S'Elu 270'\ng18\n(S'Variable_Type'\n(I2\nttRp413\ntp414\na(S'Elu 300'\ng18\n(S'Variable_Type'\n(I2\nttRp415\ntp416\na(S'Elu 330'\ng18\n(S'Variable_Type'\n(I2\nttRp417\ntp418\na(S'Elu 360'\ng18\n(S'Variable_Type'\n(I2\nttRp419\ntp420\na(S'Elu 390'\ng18\n(S'Variable_Type'\n(I2\nttRp421\ntp422\na(S'cdc15 10'\ng18\n(S'Variable_Type'\n(I2\nttRp423\ntp424\na(S'cdc15 30'\ng18\n(S'Variable_Type'\n(I2\nttRp425\ntp426\na(S'cdc15 50'\ng18\n(S'Variable_Type'\n(I2\nttRp427\ntp428\na(S'cdc15 70'\ng18\n(S'Variable_Type'\n(I2\nttRp429\ntp430\na(S'cdc15 90'\ng18\n(S'Variable_Type'\n(I2\nttRp431\ntp432\na(S'cdc15 110'\ng18\n(S'Variable_Type'\n(I2\nttRp433\ntp434\na(S'cdc15 130'\ng18\n(S'Variable_Type'\n(I2\nttRp435\ntp436\na(S'cdc15 150'\ng18\n(S'Variable_Type'\n(I2\nttRp437\ntp438\na(S'cdc15 170'\ng18\n(S'Variable_Type'\n(I2\nttRp439\ntp440\na(S'cdc15 190'\ng18\n(S'Variable_Type'\n(I2\nttRp441\ntp442\na(S'cdc15 210'\ng18\n(S'Variable_Type'\n(I2\nttRp443\ntp444\na(S'cdc15 230'\ng18\n(S'Variable_Type'\n(I2\nttRp445\ntp446\na(S'cdc15 250'\ng18\n(S'Variable_Type'\n(I2\nttRp447\ntp448\na(S'cdc15 270'\ng18\n(S'Variable_Type'\n(I2\nttRp449\ntp450\na(S'cdc15 290'\ng18\n(S'Variable_Type'\n(I2\nttRp451\ntp452\na(S'spo 0'\ng18\n(S'Variable_Type'\n(I2\nttRp453\ntp454\na(S'spo 2'\ng18\n(S'Variable_Type'\n(I2\nttRp455\ntp456\na(S'spo 5'\ng18\n(S'Variable_Type'\n(I2\nttRp457\ntp458\na(S'spo 7'\ng18\n(S'Variable_Type'\n(I2\nttRp459\ntp460\na(S'spo 9'\ng18\n(S'Variable_Type'\n(I2\nttRp461\ntp462\na(S'spo 11'\ng18\n(S'Variable_Type'\n(I2\nttRp463\ntp464\na(S'spo5 2'\ng18\n(S'Variable_Type'\n(I2\nttRp465\ntp466\na(S'spo5 7'\ng18\n(S'Variable_Type'\n(I2\nttRp467\ntp468\na(S'spo5 11'\ng18\n(S'Variable_Type'\n(I2\nttRp469\ntp470\na(S'spo- early'\ng18\n(S'Variable_Type'\n(I2\nttRp471\ntp472\na(S'spo- mid'\ng18\n(S'Variable_Type'\n(I2\nttRp473\ntp474\na(S'heat 0'\ng18\n(S'Variable_Type'\n(I2\nttRp475\ntp476\na(S'heat 10'\ng18\n(S'Variable_Type'\n(I2\nttRp477\ntp478\na(S'heat 20'\ng18\n(S'Variable_Type'\n(I2\nttRp479\ntp480\na(S'heat 40'\ng18\n(S'Variable_Type'\n(I2\nttRp481\ntp482\na(S'heat 80'\ng18\n(S'Variable_Type'\n(I2\nttRp483\ntp484\na(S'heat 160'\ng18\n(S'Variable_Type'\n(I2\nttRp485\ntp486\na(S'dtt 15'\ng18\n(S'Variable_Type'\n(I2\nttRp487\ntp488\na(S'dtt 30'\ng18\n(S'Variable_Type'\n(I2\nttRp489\ntp490\na(S'dtt 60'\ng18\n(S'Variable_Type'\n(I2\nttRp491\ntp492\na(S'dtt 120'\ng18\n(S'Variable_Type'\n(I2\nttRp493\ntp494\na(S'cold 0'\ng18\n(S'Variable_Type'\n(I2\nttRp495\ntp496\na(S'cold 20'\ng18\n(S'Variable_Type'\n(I2\nttRp497\ntp498\na(S'cold 40'\ng18\n(S'Variable_Type'\n(I2\nttRp499\ntp500\na(S'cold 160'\ng18\n(S'Variable_Type'\n(I2\nttRp501\ntp502\na(S'diau a'\ng18\n(S'Variable_Type'\n(I2\nttRp503\ntp504\na(S'diau b'\ng18\n(S'Variable_Type'\n(I2\nttRp505\ntp506\na(S'diau c'\ng18\n(S'Variable_Type'\n(I2\nttRp507\ntp508\na(S'diau d'\ng18\n(S'Variable_Type'\n(I2\nttRp509\ntp510\na(S'diau e'\ng18\n(S'Variable_Type'\n(I2\nttRp511\ntp512\na(S'diau f'\ng18\n(S'Variable_Type'\n(I2\nttRp513\ntp514\na(S'diau g'\ng18\n(S'Variable_Type'\n(I2\nttRp515\ntp516\na(S'alpha 84'\ng18\n(S'Variable_Type'\n(I2\nttRp517\ntp518\na(S'alpha 91'\ng18\n(S'Variable_Type'\n(I2\nttRp519\ntp520\nasS'classAttribute'\np521\n(lp522\nsS'selectedClass'\np523\n(lp524\nssS'attributes'\np525\n(dp526\nS'Elu 270'\np527\ng18\n(S'Variable_Type'\n(I2\nttRp528\nsS'spo5 7'\np529\ng18\n(S'Variable_Type'\n(I2\nttRp530\nsS'alpha 0'\np531\ng18\n(S'Variable_Type'\n(I2\nttRp532\nsS'alpha 56'\np533\ng18\n(S'Variable_Type'\n(I2\nttRp534\nsS'Elu 210'\np535\ng18\n(S'Variable_Type'\n(I2\nttRp536\nsS'cold 40'\np537\ng18\n(S'Variable_Type'\n(I2\nttRp538\nsS'Elu 60'\np539\ng18\n(S'Variable_Type'\n(I2\nttRp540\nsS'Elu 330'\np541\ng18\n(S'Variable_Type'\n(I2\nttRp542\nsS'cold 0'\np543\ng18\n(S'Variable_Type'\n(I2\nttRp544\nsS'spo- mid'\np545\ng18\n(S'Variable_Type'\n(I2\nttRp546\nsS'dtt 15'\np547\ng18\n(S'Variable_Type'\n(I2\nttRp548\nsS'spo 9'\np549\ng18\n(S'Variable_Type'\n(I2\nttRp550\nsS'alpha 91'\np551\ng18\n(S'Variable_Type'\n(I2\nttRp552\nsS'alpha 112'\np553\ng18\n(S'Variable_Type'\n(I2\nttRp554\nsS'alpha 105'\np555\ng18\n(S'Variable_Type'\n(I2\nttRp556\nsS'dtt 30'\np557\ng18\n(S'Variable_Type'\n(I2\nttRp558\nsS'spo5 2'\np559\ng18\n(S'Variable_Type'\n(I2\nttRp560\nsS'Elu 150'\np561\ng18\n(S'Variable_Type'\n(I2\nttRp562\nsS'cold 20'\np563\ng18\n(S'Variable_Type'\n(I2\nttRp564\nsS'Elu 390'\np565\ng18\n(S'Variable_Type'\n(I2\nttRp566\nsS'alpha 7'\np567\ng18\n(S'Variable_Type'\n(I2\nttRp568\nsS'heat 80'\np569\ng18\n(S'Variable_Type'\n(I2\nttRp570\nsS'diau a'\np571\ng18\n(S'Variable_Type'\n(I2\nttRp572\nsS'diau c'\np573\ng18\n(S'Variable_Type'\n(I2\nttRp574\nsS'diau b'\np575\ng18\n(S'Variable_Type'\n(I2\nttRp576\nsS'diau e'\np577\ng18\n(S'Variable_Type'\n(I2\nttRp578\nsS'diau d'\np579\ng18\n(S'Variable_Type'\n(I2\nttRp580\nsS'spo5 11'\np581\ng18\n(S'Variable_Type'\n(I2\nttRp582\nsS'diau f'\np583\ng18\n(S'Variable_Type'\n(I2\nttRp584\nsS'cold 160'\np585\ng18\n(S'Variable_Type'\n(I2\nttRp586\nsS'alpha 28'\np587\ng18\n(S'Variable_Type'\n(I2\nttRp588\nsS'Elu 30'\np589\ng18\n(S'Variable_Type'\n(I2\nttRp590\nsS'alpha 98'\np591\ng18\n(S'Variable_Type'\n(I2\nttRp592\nsS'function'\np593\ng18\n(S'Variable_Type'\n(I1\nttRp594\nsS'heat 40'\np595\ng18\n(S'Variable_Type'\n(I2\nttRp596\nsS'alpha 42'\np597\ng18\n(S'Variable_Type'\n(I2\nttRp598\nsS'cdc15 170'\np599\ng18\n(S'Variable_Type'\n(I2\nttRp600\nsS'alpha 63'\np601\ng18\n(S'Variable_Type'\n(I2\nttRp602\nsS'Elu 360'\np603\ng18\n(S'Variable_Type'\n(I2\nttRp604\nsS'heat 160'\np605\ng18\n(S'Variable_Type'\n(I2\nttRp606\nsS'dtt 120'\np607\ng18\n(S'Variable_Type'\n(I2\nttRp608\nsS'alpha 49'\np609\ng18\n(S'Variable_Type'\n(I2\nttRp610\nsS'Elu 180'\np611\ng18\n(S'Variable_Type'\n(I2\nttRp612\nsS'heat 20'\np613\ng18\n(S'Variable_Type'\n(I2\nttRp614\nsS'Elu 240'\np615\ng18\n(S'Variable_Type'\n(I2\nttRp616\nsS'cdc15 150'\np617\ng18\n(S'Variable_Type'\n(I2\nttRp618\nsS'alpha 84'\np619\ng18\n(S'Variable_Type'\n(I2\nttRp620\nsS'cdc15 110'\np621\ng18\n(S'Variable_Type'\n(I2\nttRp622\nsS'cdc15 290'\np623\ng18\n(S'Variable_Type'\n(I2\nttRp624\nsS'alpha 119'\np625\ng18\n(S'Variable_Type'\n(I2\nttRp626\nsS'cdc15 30'\np627\ng18\n(S'Variable_Type'\n(I2\nttRp628\nsS'cdc15 130'\np629\ng18\n(S'Variable_Type'\n(I2\nttRp630\nsS'spo 11'\np631\ng18\n(S'Variable_Type'\n(I2\nttRp632\nsS'Elu 90'\np633\ng18\n(S'Variable_Type'\n(I2\nttRp634\nsS'cdc15 270'\np635\ng18\n(S'Variable_Type'\n(I2\nttRp636\nsS'diau g'\np637\ng18\n(S'Variable_Type'\n(I2\nttRp638\nsS'cdc15 230'\np639\ng18\n(S'Variable_Type'\n(I2\nttRp640\nsS'spo 0'\np641\ng18\n(S'Variable_Type'\n(I2\nttRp642\nsS'spo 2'\np643\ng18\n(S'Variable_Type'\n(I2\nttRp644\nsS'spo 5'\np645\ng18\n(S'Variable_Type'\n(I2\nttRp646\nsS'spo 7'\np647\ng18\n(S'Variable_Type'\n(I2\nttRp648\nsS'cdc15 250'\np649\ng18\n(S'Variable_Type'\n(I2\nttRp650\nsS'Elu 120'\np651\ng18\n(S'Variable_Type'\n(I2\nttRp652\nsS'Elu 0'\np653\ng18\n(S'Variable_Type'\n(I2\nttRp654\nsS'cdc15 90'\np655\ng18\n(S'Variable_Type'\n(I2\nttRp656\nsS'cdc15 190'\np657\ng18\n(S'Variable_Type'\n(I2\nttRp658\nsS'Elu 300'\np659\ng18\n(S'Variable_Type'\n(I2\nttRp660\nsS'cdc15 50'\np661\ng18\n(S'Variable_Type'\n(I2\nttRp662\nsS'alpha 35'\np663\ng18\n(S'Variable_Type'\n(I2\nttRp664\nsS'cdc15 10'\np665\ng18\n(S'Variable_Type'\n(I2\nttRp666\nsS'spo- early'\np667\ng18\n(S'Variable_Type'\n(I2\nttRp668\nsS'heat 10'\np669\ng18\n(S'Variable_Type'\n(I2\nttRp670\nsS'heat 0'\np671\ng18\n(S'Variable_Type'\n(I2\nttRp672\nsS'cdc15 210'\np673\ng18\n(S'Variable_Type'\n(I2\nttRp674\nsS'cdc15 70'\np675\ng18\n(S'Variable_Type'\n(I2\nttRp676\nsS'alpha 70'\np677\ng18\n(S'Variable_Type'\n(I2\nttRp678\nsS'alpha 14'\np679\ng18\n(S'Variable_Type'\n(I2\nttRp680\nsS'dtt 60'\np681\ng18\n(S'Variable_Type'\n(I2\nttRp682\nsS'alpha 77'\np683\ng18\n(S'Variable_Type'\n(I2\nttRp684\nsS'alpha 21'\np685\ng18\n(S'Variable_Type'\n(I2\nttRp686\nssS'metas'\np687\n(dp688\nS'gene'\np689\ng18\n(S'Variable_Type'\n(I6\nttRp690\nssS'noCopy'\np691\n(lp692\nS'orderedDomain'\np693\nasS'time'\np694\nF1303382355.998033\nsba(iOWContexts\nContext\np695\n(dp696\nS'values'\np697\n(dp698\nS'selectedMeta'\np699\n(lp700\nsS'metaAttributes'\np701\n(lp702\n(S'gene'\ng18\n(S'Variable_Type'\n(I6\nttRp703\ntp704\nasS'selectedChosen'\np705\n(lp706\nsS'chosenAttributes'\np707\n(lp708\n(S'alpha 0'\ng18\n(S'Variable_Type'\n(I2\nttRp709\ntp710\na(S'alpha 7'\ng18\n(S'Variable_Type'\n(I2\nttRp711\ntp712\na(S'alpha 14'\ng18\n(S'Variable_Type'\n(I2\nttRp713\ntp714\na(S'alpha 21'\ng18\n(S'Variable_Type'\n(I2\nttRp715\ntp716\na(S'alpha 28'\ng18\n(S'Variable_Type'\n(I2\nttRp717\ntp718\na(S'alpha 35'\ng18\n(S'Variable_Type'\n(I2\nttRp719\ntp720\na(S'alpha 42'\ng18\n(S'Variable_Type'\n(I2\nttRp721\ntp722\na(S'alpha 49'\ng18\n(S'Variable_Type'\n(I2\nttRp723\ntp724\na(S'alpha 98'\ng18\n(S'Variable_Type'\n(I2\nttRp725\ntp726\na(S'alpha 63'\ng18\n(S'Variable_Type'\n(I2\nttRp727\ntp728\na(S'alpha 105'\ng18\n(S'Variable_Type'\n(I2\nttRp729\ntp730\na(S'alpha 112'\ng18\n(S'Variable_Type'\n(I2\nttRp731\ntp732\na(S'alpha 119'\ng18\n(S'Variable_Type'\n(I2\nttRp733\ntp734\na(S'Elu 0'\ng18\n(S'Variable_Type'\n(I2\nttRp735\ntp736\na(S'Elu 30'\ng18\n(S'Variable_Type'\n(I2\nttRp737\ntp738\na(S'Elu 60'\ng18\n(S'Variable_Type'\n(I2\nttRp739\ntp740\na(S'Elu 90'\ng18\n(S'Variable_Type'\n(I2\nttRp741\ntp742\na(S'Elu 120'\ng18\n(S'Variable_Type'\n(I2\nttRp743\ntp744\na(S'Elu 150'\ng18\n(S'Variable_Type'\n(I2\nttRp745\ntp746\na(S'Elu 180'\ng18\n(S'Variable_Type'\n(I2\nttRp747\ntp748\na(S'Elu 210'\ng18\n(S'Variable_Type'\n(I2\nttRp749\ntp750\na(S'Elu 240'\ng18\n(S'Variable_Type'\n(I2\nttRp751\ntp752\na(S'Elu 270'\ng18\n(S'Variable_Type'\n(I2\nttRp753\ntp754\na(S'Elu 300'\ng18\n(S'Variable_Type'\n(I2\nttRp755\ntp756\na(S'Elu 330'\ng18\n(S'Variable_Type'\n(I2\nttRp757\ntp758\na(S'Elu 360'\ng18\n(S'Variable_Type'\n(I2\nttRp759\ntp760\na(S'Elu 390'\ng18\n(S'Variable_Type'\n(I2\nttRp761\ntp762\na(S'cdc15 10'\ng18\n(S'Variable_Type'\n(I2\nttRp763\ntp764\na(S'cdc15 30'\ng18\n(S'Variable_Type'\n(I2\nttRp765\ntp766\na(S'cdc15 50'\ng18\n(S'Variable_Type'\n(I2\nttRp767\ntp768\na(S'cdc15 70'\ng18\n(S'Variable_Type'\n(I2\nttRp769\ntp770\na(S'cdc15 90'\ng18\n(S'Variable_Type'\n(I2\nttRp771\ntp772\na(S'cdc15 110'\ng18\n(S'Variable_Type'\n(I2\nttRp773\ntp774\na(S'cdc15 130'\ng18\n(S'Variable_Type'\n(I2\nttRp775\ntp776\na(S'cdc15 150'\ng18\n(S'Variable_Type'\n(I2\nttRp777\ntp778\na(S'cdc15 170'\ng18\n(S'Variable_Type'\n(I2\nttRp779\ntp780\na(S'cdc15 190'\ng18\n(S'Variable_Type'\n(I2\nttRp781\ntp782\na(S'cdc15 210'\ng18\n(S'Variable_Type'\n(I2\nttRp783\ntp784\na(S'cdc15 230'\ng18\n(S'Variable_Type'\n(I2\nttRp785\ntp786\na(S'cdc15 250'\ng18\n(S'Variable_Type'\n(I2\nttRp787\ntp788\na(S'cdc15 270'\ng18\n(S'Variable_Type'\n(I2\nttRp789\ntp790\na(S'cdc15 290'\ng18\n(S'Variable_Type'\n(I2\nttRp791\ntp792\na(S'spo 0'\ng18\n(S'Variable_Type'\n(I2\nttRp793\ntp794\na(S'spo 2'\ng18\n(S'Variable_Type'\n(I2\nttRp795\ntp796\na(S'spo 5'\ng18\n(S'Variable_Type'\n(I2\nttRp797\ntp798\na(S'spo 7'\ng18\n(S'Variable_Type'\n(I2\nttRp799\ntp800\na(S'spo 9'\ng18\n(S'Variable_Type'\n(I2\nttRp801\ntp802\na(S'spo 11'\ng18\n(S'Variable_Type'\n(I2\nttRp803\ntp804\na(S'spo5 2'\ng18\n(S'Variable_Type'\n(I2\nttRp805\ntp806\na(S'spo5 7'\ng18\n(S'Variable_Type'\n(I2\nttRp807\ntp808\na(S'spo5 11'\ng18\n(S'Variable_Type'\n(I2\nttRp809\ntp810\na(S'spo- early'\ng18\n(S'Variable_Type'\n(I2\nttRp811\ntp812\na(S'spo- mid'\ng18\n(S'Variable_Type'\n(I2\nttRp813\ntp814\na(S'heat 0'\ng18\n(S'Variable_Type'\n(I2\nttRp815\ntp816\na(S'heat 10'\ng18\n(S'Variable_Type'\n(I2\nttRp817\ntp818\na(S'heat 20'\ng18\n(S'Variable_Type'\n(I2\nttRp819\ntp820\na(S'heat 40'\ng18\n(S'Variable_Type'\n(I2\nttRp821\ntp822\na(S'heat 80'\ng18\n(S'Variable_Type'\n(I2\nttRp823\ntp824\na(S'heat 160'\ng18\n(S'Variable_Type'\n(I2\nttRp825\ntp826\na(S'dtt 15'\ng18\n(S'Variable_Type'\n(I2\nttRp827\ntp828\na(S'dtt 30'\ng18\n(S'Variable_Type'\n(I2\nttRp829\ntp830\na(S'dtt 60'\ng18\n(S'Variable_Type'\n(I2\nttRp831\ntp832\na(S'dtt 120'\ng18\n(S'Variable_Type'\n(I2\nttRp833\ntp834\na(S'cold 0'\ng18\n(S'Variable_Type'\n(I2\nttRp835\ntp836\na(S'cold 20'\ng18\n(S'Variable_Type'\n(I2\nttRp837\ntp838\na(S'cold 40'\ng18\n(S'Variable_Type'\n(I2\nttRp839\ntp840\na(S'cold 160'\ng18\n(S'Variable_Type'\n(I2\nttRp841\ntp842\na(S'diau a'\ng18\n(S'Variable_Type'\n(I2\nttRp843\ntp844\na(S'diau b'\ng18\n(S'Variable_Type'\n(I2\nttRp845\ntp846\na(S'diau c'\ng18\n(S'Variable_Type'\n(I2\nttRp847\ntp848\na(S'diau d'\ng18\n(S'Variable_Type'\n(I2\nttRp849\ntp850\na(S'diau e'\ng18\n(S'Variable_Type'\n(I2\nttRp851\ntp852\na(S'diau f'\ng18\n(S'Variable_Type'\n(I2\nttRp853\ntp854\na(S'diau g'\ng18\n(S'Variable_Type'\n(I2\nttRp855\ntp856\na(S'alpha 84'\ng18\n(S'Variable_Type'\n(I2\nttRp857\ntp858\na(S'alpha 91'\ng18\n(S'Variable_Type'\n(I2\nttRp859\ntp860\nasS'classAttribute'\np861\n(lp862\nsS'selectedClass'\np863\n(lp864\nssS'attributes'\np865\n(dp866\nS'Elu 270'\np867\ng18\n(S'Variable_Type'\n(I2\nttRp868\nsS'spo5 7'\np869\ng18\n(S'Variable_Type'\n(I2\nttRp870\nsS'alpha 0'\np871\ng18\n(S'Variable_Type'\n(I2\nttRp872\nsS'alpha 56'\np873\ng18\n(S'Variable_Type'\n(I2\nttRp874\nsS'Elu 210'\np875\ng18\n(S'Variable_Type'\n(I2\nttRp876\nsS'cold 40'\np877\ng18\n(S'Variable_Type'\n(I2\nttRp878\nsS'Elu 60'\np879\ng18\n(S'Variable_Type'\n(I2\nttRp880\nsS'Elu 330'\np881\ng18\n(S'Variable_Type'\n(I2\nttRp882\nsS'cold 0'\np883\ng18\n(S'Variable_Type'\n(I2\nttRp884\nsS'spo- mid'\np885\ng18\n(S'Variable_Type'\n(I2\nttRp886\nsS'dtt 15'\np887\ng18\n(S'Variable_Type'\n(I2\nttRp888\nsS'spo 9'\np889\ng18\n(S'Variable_Type'\n(I2\nttRp890\nsS'alpha 91'\np891\ng18\n(S'Variable_Type'\n(I2\nttRp892\nsS'alpha 112'\np893\ng18\n(S'Variable_Type'\n(I2\nttRp894\nsS'alpha 105'\np895\ng18\n(S'Variable_Type'\n(I2\nttRp896\nsS'dtt 30'\np897\ng18\n(S'Variable_Type'\n(I2\nttRp898\nsS'spo5 2'\np899\ng18\n(S'Variable_Type'\n(I2\nttRp900\nsS'Elu 150'\np901\ng18\n(S'Variable_Type'\n(I2\nttRp902\nsS'cold 20'\np903\ng18\n(S'Variable_Type'\n(I2\nttRp904\nsS'Elu 390'\np905\ng18\n(S'Variable_Type'\n(I2\nttRp906\nsS'alpha 7'\np907\ng18\n(S'Variable_Type'\n(I2\nttRp908\nsS'heat 80'\np909\ng18\n(S'Variable_Type'\n(I2\nttRp910\nsS'diau a'\np911\ng18\n(S'Variable_Type'\n(I2\nttRp912\nsS'diau c'\np913\ng18\n(S'Variable_Type'\n(I2\nttRp914\nsS'diau b'\np915\ng18\n(S'Variable_Type'\n(I2\nttRp916\nsS'diau e'\np917\ng18\n(S'Variable_Type'\n(I2\nttRp918\nsS'diau d'\np919\ng18\n(S'Variable_Type'\n(I2\nttRp920\nsS'spo5 11'\np921\ng18\n(S'Variable_Type'\n(I2\nttRp922\nsS'diau f'\np923\ng18\n(S'Variable_Type'\n(I2\nttRp924\nsS'cold 160'\np925\ng18\n(S'Variable_Type'\n(I2\nttRp926\nsS'alpha 28'\np927\ng18\n(S'Variable_Type'\n(I2\nttRp928\nsS'Elu 30'\np929\ng18\n(S'Variable_Type'\n(I2\nttRp930\nsS'alpha 98'\np931\ng18\n(S'Variable_Type'\n(I2\nttRp932\nsS'function'\np933\ng18\n(S'Variable_Type'\n(I1\nttRp934\nsS'heat 40'\np935\ng18\n(S'Variable_Type'\n(I2\nttRp936\nsS'alpha 42'\np937\ng18\n(S'Variable_Type'\n(I2\nttRp938\nsS'cdc15 170'\np939\ng18\n(S'Variable_Type'\n(I2\nttRp940\nsS'alpha 63'\np941\ng18\n(S'Variable_Type'\n(I2\nttRp942\nsS'Elu 360'\np943\ng18\n(S'Variable_Type'\n(I2\nttRp944\nsS'heat 160'\np945\ng18\n(S'Variable_Type'\n(I2\nttRp946\nsS'dtt 120'\np947\ng18\n(S'Variable_Type'\n(I2\nttRp948\nsS'alpha 49'\np949\ng18\n(S'Variable_Type'\n(I2\nttRp950\nsS'Elu 180'\np951\ng18\n(S'Variable_Type'\n(I2\nttRp952\nsS'heat 20'\np953\ng18\n(S'Variable_Type'\n(I2\nttRp954\nsS'Elu 240'\np955\ng18\n(S'Variable_Type'\n(I2\nttRp956\nsS'cdc15 150'\np957\ng18\n(S'Variable_Type'\n(I2\nttRp958\nsS'alpha 84'\np959\ng18\n(S'Variable_Type'\n(I2\nttRp960\nsS'cdc15 110'\np961\ng18\n(S'Variable_Type'\n(I2\nttRp962\nsS'cdc15 290'\np963\ng18\n(S'Variable_Type'\n(I2\nttRp964\nsS'alpha 119'\np965\ng18\n(S'Variable_Type'\n(I2\nttRp966\nsS'cdc15 30'\np967\ng18\n(S'Variable_Type'\n(I2\nttRp968\nsS'cdc15 130'\np969\ng18\n(S'Variable_Type'\n(I2\nttRp970\nsS'spo 11'\np971\ng18\n(S'Variable_Type'\n(I2\nttRp972\nsS'Elu 90'\np973\ng18\n(S'Variable_Type'\n(I2\nttRp974\nsS'cdc15 270'\np975\ng18\n(S'Variable_Type'\n(I2\nttRp976\nsS'diau g'\np977\ng18\n(S'Variable_Type'\n(I2\nttRp978\nsS'cdc15 230'\np979\ng18\n(S'Variable_Type'\n(I2\nttRp980\nsS'spo 0'\np981\ng18\n(S'Variable_Type'\n(I2\nttRp982\nsS'spo 2'\np983\ng18\n(S'Variable_Type'\n(I2\nttRp984\nsS'spo 5'\np985\ng18\n(S'Variable_Type'\n(I2\nttRp986\nsS'spo 7'\np987\ng18\n(S'Variable_Type'\n(I2\nttRp988\nsS'cdc15 250'\np989\ng18\n(S'Variable_Type'\n(I2\nttRp990\nsS'Elu 120'\np991\ng18\n(S'Variable_Type'\n(I2\nttRp992\nsS'Elu 0'\np993\ng18\n(S'Variable_Type'\n(I2\nttRp994\nsS'cdc15 90'\np995\ng18\n(S'Variable_Type'\n(I2\nttRp996\nsS'cdc15 190'\np997\ng18\n(S'Variable_Type'\n(I2\nttRp998\nsS'Elu 300'\np999\ng18\n(S'Variable_Type'\n(I2\nttRp1000\nsS'cdc15 50'\np1001\ng18\n(S'Variable_Type'\n(I2\nttRp1002\nsS'alpha 35'\np1003\ng18\n(S'Variable_Type'\n(I2\nttRp1004\nsS'cdc15 10'\np1005\ng18\n(S'Variable_Type'\n(I2\nttRp1006\nsS'spo- early'\np1007\ng18\n(S'Variable_Type'\n(I2\nttRp1008\nsS'heat 10'\np1009\ng18\n(S'Variable_Type'\n(I2\nttRp1010\nsS'heat 0'\np1011\ng18\n(S'Variable_Type'\n(I2\nttRp1012\nsS'cdc15 210'\np1013\ng18\n(S'Variable_Type'\n(I2\nttRp1014\nsS'cdc15 70'\np1015\ng18\n(S'Variable_Type'\n(I2\nttRp1016\nsS'alpha 70'\np1017\ng18\n(S'Variable_Type'\n(I2\nttRp1018\nsS'alpha 14'\np1019\ng18\n(S'Variable_Type'\n(I2\nttRp1020\nsS'dtt 60'\np1021\ng18\n(S'Variable_Type'\n(I2\nttRp1022\nsS'alpha 77'\np1023\ng18\n(S'Variable_Type'\n(I2\nttRp1024\nsS'alpha 21'\np1025\ng18\n(S'Variable_Type'\n(I2\nttRp1026\nssS'metas'\np1027\n(dp1028\nS'gene'\np1029\ng18\n(S'Variable_Type'\n(I6\nttRp1030\nssS'noCopy'\np1031\n(lp1032\nS'orderedDomain'\np1033\nasS'time'\np1034\nF1303382355.998033\nsba(iOWContexts\nContext\np1035\n(dp1036\nS'noCopy'\np1037\n(lp1038\nS'orderedDomain'\np1039\nasS'attributes'\np1040\n(dp1041\nS'sepal width'\np1042\ng18\n(S'Variable_Type'\n(I2\nttRp1043\nsS'petal width'\np1044\ng18\n(S'Variable_Type'\n(I2\nttRp1045\nsS'petal length'\np1046\ng18\n(S'Variable_Type'\n(I2\nttRp1047\nsS'sepal length'\np1048\ng18\n(S'Variable_Type'\n(I2\nttRp1049\nsS'iris'\np1050\ng18\n(S'Variable_Type'\n(I1\nttRp1051\nssS'metas'\np1052\n(dp1053\nsS'values'\np1054\n(dp1055\nS'selectedMeta'\np1056\n(lp1057\nsS'metaAttributes'\np1058\n(lp1059\nsS'selectedChosen'\np1060\n(lp1061\nsS'chosenAttributes'\np1062\n(lp1063\n(S'petal width'\ng18\n(S'Variable_Type'\n(I2\nttRp1064\ntp1065\na(S'sepal length'\ng18\n(S'Variable_Type'\n(I2\nttRp1066\ntp1067\na(S'sepal width'\ng18\n(S'Variable_Type'\n(I2\nttRp1068\ntp1069\nasS'classAttribute'\np1070\n(lp1071\n(S'petal length'\ng18\n(S'Variable_Type'\n(I2\nttRp1072\ntp1073\nasS'selectedClass'\np1074\n(lp1075\nI0\nassS'time'\np1076\nF1303310670.131525\nsba(iOWContexts\nContext\np1077\n(dp1078\nS'noCopy'\np1079\n(lp1080\nS'orderedDomain'\np1081\nasS'attributes'\np1082\n(dp1083\nS'sepal width'\np1084\ng18\n(S'Variable_Type'\n(I2\nttRp1085\nsS'petal width'\np1086\ng18\n(S'Variable_Type'\n(I2\nttRp1087\nsS'petal length'\np1088\ng18\n(S'Variable_Type'\n(I2\nttRp1089\nsS'sepal length'\np1090\ng18\n(S'Variable_Type'\n(I2\nttRp1091\nsS'iris'\np1092\ng18\n(S'Variable_Type'\n(I1\nttRp1093\nssS'metas'\np1094\n(dp1095\nsS'values'\np1096\n(dp1097\nS'selectedMeta'\np1098\n(lp1099\nsS'metaAttributes'\np1100\n(lp1101\nsS'selectedChosen'\np1102\n(lp1103\nsS'chosenAttributes'\np1104\n(lp1105\n(S'petal width'\ng18\n(S'Variable_Type'\n(I2\nttRp1106\ntp1107\na(S'sepal length'\ng18\n(S'Variable_Type'\n(I2\nttRp1108\ntp1109\na(S'sepal width'\ng18\n(S'Variable_Type'\n(I2\nttRp1110\ntp1111\nasS'classAttribute'\np1112\n(lp1113\n(S'petal length'\ng18\n(S'Variable_Type'\n(I2\nttRp1114\ntp1115\nasS'selectedClass'\np1116\n(lp1117\nI0\nassS'time'\np1118\nF1303310670.131525\nsba(iOWContexts\nContext\np1119\n(dp1120\nS'values'\np1121\n(dp1122\nS'selectedMeta'\np1123\n(lp1124\nsS'metaAttributes'\np1125\n(lp1126\nsS'selectedChosen'\np1127\n(lp1128\nsS'chosenAttributes'\np1129\n(lp1130\n(S'status'\ng18\n(S'Variable_Type'\n(I1\nttRp1131\ntp1132\na(S'age'\ng18\n(S'Variable_Type'\n(I1\nttRp1133\ntp1134\na(S'sex'\ng18\n(S'Variable_Type'\n(I1\nttRp1135\ntp1136\nasS'classAttribute'\np1137\n(lp1138\n(S'survived'\ng18\n(S'Variable_Type'\n(I1\nttRp1139\ntp1140\nasS'selectedClass'\np1141\n(lp1142\nssS'attributes'\np1143\n(dp1144\nS'status'\np1145\ng18\n(S'Variable_Type'\n(I1\nttRp1146\nsS'age'\np1147\ng18\n(S'Variable_Type'\n(I1\nttRp1148\nsS'survived'\np1149\ng18\n(S'Variable_Type'\n(I1\nttRp1150\nsS'sex'\np1151\ng18\n(S'Variable_Type'\n(I1\nttRp1152\nssS'metas'\np1153\n(dp1154\nsS'noCopy'\np1155\n(lp1156\nS'orderedDomain'\np1157\nasS'time'\np1158\nF1299844519.067657\nsba(iOWContexts\nContext\np1159\n(dp1160\nS'noCopy'\np1161\n(lp1162\nS'orderedDomain'\np1163\nasS'attributes'\np1164\n(dp1165\nS'status'\np1166\ng18\n(S'Variable_Type'\n(I1\nttRp1167\nsS'age'\np1168\ng18\n(S'Variable_Type'\n(I1\nttRp1169\nsS'survived'\np1170\ng18\n(S'Variable_Type'\n(I1\nttRp1171\nsS'sex'\np1172\ng18\n(S'Variable_Type'\n(I1\nttRp1173\nssS'metas'\np1174\n(dp1175\nsS'values'\np1176\n(dp1177\nS'selectedMeta'\np1178\n(lp1179\nsS'metaAttributes'\np1180\n(lp1181\nsS'selectedChosen'\np1182\n(lp1183\nsS'chosenAttributes'\np1184\n(lp1185\n(S'status'\ng18\n(S'Variable_Type'\n(I1\nttRp1186\ntp1187\na(S'age'\ng18\n(S'Variable_Type'\n(I1\nttRp1188\ntp1189\na(S'sex'\ng18\n(S'Variable_Type'\n(I1\nttRp1190\ntp1191\nasS'classAttribute'\np1192\n(lp1193\n(S'survived'\ng18\n(S'Variable_Type'\n(I1\nttRp1194\ntp1195\nasS'selectedClass'\np1196\n(lp1197\nssS'time'\np1198\nF1299844519.067657\nsba(iOWContexts\nContext\np1199\n(dp1200\nS'noCopy'\np1201\n(lp1202\nS'orderedDomain'\np1203\nasS'attributes'\np1204\n(dp1205\nS'status'\np1206\ng18\n(S'Variable_Type'\n(I1\nttRp1207\nsS'age'\np1208\ng18\n(S'Variable_Type'\n(I1\nttRp1209\nsS'survived'\np1210\ng18\n(S'Variable_Type'\n(I1\nttRp1211\nsS'sex'\np1212\ng18\n(S'Variable_Type'\n(I1\nttRp1213\nssS'metas'\np1214\n(dp1215\nsS'values'\np1216\n(dp1217\nS'selectedMeta'\np1218\n(lp1219\nsS'metaAttributes'\np1220\n(lp1221\nsS'selectedChosen'\np1222\n(lp1223\nsS'chosenAttributes'\np1224\n(lp1225\n(S'status'\ng18\n(S'Variable_Type'\n(I1\nttRp1226\ntp1227\na(S'age'\ng18\n(S'Variable_Type'\n(I1\nttRp1228\ntp1229\na(S'sex'\ng18\n(S'Variable_Type'\n(I1\nttRp1230\ntp1231\nasS'classAttribute'\np1232\n(lp1233\n(S'survived'\ng18\n(S'Variable_Type'\n(I1\nttRp1234\ntp1235\nasS'selectedClass'\np1236\n(lp1237\nssS'time'\np1238\nF1299844519.067657\nsba(iOWContexts\nContext\np1239\n(dp1240\nS'values'\np1241\n(dp1242\nS'selectedMeta'\np1243\n(lp1244\nsS'metaAttributes'\np1245\n(lp1246\nsS'selectedChosen'\np1247\n(lp1248\nsS'chosenAttributes'\np1249\n(lp1250\n(S'age'\ng18\n(S'Variable_Type'\n(I1\nttRp1251\ntp1252\na(S'prescription'\ng18\n(S'Variable_Type'\n(I1\nttRp1253\ntp1254\na(S'astigmatic'\ng18\n(S'Variable_Type'\n(I1\nttRp1255\ntp1256\na(S'tear_rate'\ng18\n(S'Variable_Type'\n(I1\nttRp1257\ntp1258\nasS'classAttribute'\np1259\n(lp1260\n(S'lenses'\ng18\n(S'Variable_Type'\n(I1\nttRp1261\ntp1262\nasS'selectedClass'\np1263\n(lp1264\nI0\nassS'attributes'\np1265\n(dp1266\nS'astigmatic'\np1267\ng18\n(S'Variable_Type'\n(I1\nttRp1268\nsS'tear_rate'\np1269\ng18\n(S'Variable_Type'\n(I1\nttRp1270\nsS'age'\np1271\ng18\n(S'Variable_Type'\n(I1\nttRp1272\nsS'prescription'\np1273\ng18\n(S'Variable_Type'\n(I1\nttRp1274\nsS'lenses'\np1275\ng18\n(S'Variable_Type'\n(I1\nttRp1276\nssS'metas'\np1277\n(dp1278\nsS'noCopy'\np1279\n(lp1280\nS'orderedDomain'\np1281\nasS'time'\np1282\nF1299844367.913064\nsba(iOWContexts\nContext\np1283\n(dp1284\nS'noCopy'\np1285\n(lp1286\nS'orderedDomain'\np1287\nasS'attributes'\np1288\n(dp1289\nS'astigmatic'\np1290\ng18\n(S'Variable_Type'\n(I1\nttRp1291\nsS'tear_rate'\np1292\ng18\n(S'Variable_Type'\n(I1\nttRp1293\nsS'age'\np1294\ng18\n(S'Variable_Type'\n(I1\nttRp1295\nsS'prescription'\np1296\ng18\n(S'Variable_Type'\n(I1\nttRp1297\nsS'lenses'\np1298\ng18\n(S'Variable_Type'\n(I1\nttRp1299\nssS'metas'\np1300\n(dp1301\nsS'values'\np1302\n(dp1303\nS'selectedMeta'\np1304\n(lp1305\nsS'metaAttributes'\np1306\n(lp1307\nsS'selectedChosen'\np1308\n(lp1309\nsS'chosenAttributes'\np1310\n(lp1311\n(S'age'\ng18\n(S'Variable_Type'\n(I1\nttRp1312\ntp1313\na(S'prescription'\ng18\n(S'Variable_Type'\n(I1\nttRp1314\ntp1315\na(S'astigmatic'\ng18\n(S'Variable_Type'\n(I1\nttRp1316\ntp1317\na(S'tear_rate'\ng18\n(S'Variable_Type'\n(I1\nttRp1318\ntp1319\nasS'classAttribute'\np1320\n(lp1321\n(S'lenses'\ng18\n(S'Variable_Type'\n(I1\nttRp1322\ntp1323\nasS'selectedClass'\np1324\n(lp1325\nI0\nassS'time'\np1326\nF1299844367.913064\nsba(iOWContexts\nContext\np1327\n(dp1328\nS'noCopy'\np1329\n(lp1330\nS'orderedDomain'\np1331\nasS'attributes'\np1332\n(dp1333\nS'astigmatic'\np1334\ng18\n(S'Variable_Type'\n(I1\nttRp1335\nsS'tear_rate'\np1336\ng18\n(S'Variable_Type'\n(I1\nttRp1337\nsS'age'\np1338\ng18\n(S'Variable_Type'\n(I1\nttRp1339\nsS'prescription'\np1340\ng18\n(S'Variable_Type'\n(I1\nttRp1341\nsS'lenses'\np1342\ng18\n(S'Variable_Type'\n(I1\nttRp1343\nssS'metas'\np1344\n(dp1345\nsS'values'\np1346\n(dp1347\nS'selectedMeta'\np1348\n(lp1349\nsS'metaAttributes'\np1350\n(lp1351\nsS'selectedChosen'\np1352\n(lp1353\nsS'chosenAttributes'\np1354\n(lp1355\n(S'age'\ng18\n(S'Variable_Type'\n(I1\nttRp1356\ntp1357\na(S'prescription'\ng18\n(S'Variable_Type'\n(I1\nttRp1358\ntp1359\na(S'astigmatic'\ng18\n(S'Variable_Type'\n(I1\nttRp1360\ntp1361\na(S'tear_rate'\ng18\n(S'Variable_Type'\n(I1\nttRp1362\ntp1363\nasS'classAttribute'\np1364\n(lp1365\n(S'lenses'\ng18\n(S'Variable_Type'\n(I1\nttRp1366\ntp1367\nasS'selectedClass'\np1368\n(lp1369\nI0\nassS'time'\np1370\nF1299844367.913064\nsba(iOWContexts\nContext\np1371\n(dp1372\nS'values'\np1373\n(dp1374\nS'selectedMeta'\np1375\n(lp1376\nsS'metaAttributes'\np1377\n(lp1378\nsS'selectedChosen'\np1379\n(lp1380\nsS'chosenAttributes'\np1381\n(lp1382\n(S'norm_AX2_0s'\ng18\n(S'Variable_Type'\n(I2\nttRp1383\ntp1384\na(S'Gene'\ng18\n(S'Variable_Type'\n(I6\nttRp1385\ntp1386\nasS'classAttribute'\np1387\n(lp1388\nsS'selectedClass'\np1389\n(lp1390\nssS'attributes'\np1391\n(dp1392\nS'Gene'\np1393\ng18\n(S'Variable_Type'\n(I6\nttRp1394\nsS'norm_AX2_0s'\np1395\ng18\n(S'Variable_Type'\n(I2\nttRp1396\nssS'metas'\np1397\n(dp1398\nsS'noCopy'\np1399\n(lp1400\nS'orderedDomain'\np1401\nasS'time'\np1402\nF1299764397.9064829\nsba(iOWContexts\nContext\np1403\n(dp1404\nS'noCopy'\np1405\n(lp1406\nS'orderedDomain'\np1407\nasS'attributes'\np1408\n(dp1409\nS'Gene'\np1410\ng18\n(S'Variable_Type'\n(I6\nttRp1411\nsS'norm_AX2_0s'\np1412\ng18\n(S'Variable_Type'\n(I2\nttRp1413\nssS'metas'\np1414\n(dp1415\nsS'values'\np1416\n(dp1417\nS'selectedMeta'\np1418\n(lp1419\nsS'metaAttributes'\np1420\n(lp1421\nsS'selectedChosen'\np1422\n(lp1423\nsS'chosenAttributes'\np1424\n(lp1425\n(S'norm_AX2_0s'\ng18\n(S'Variable_Type'\n(I2\nttRp1426\ntp1427\na(S'Gene'\ng18\n(S'Variable_Type'\n(I6\nttRp1428\ntp1429\nasS'classAttribute'\np1430\n(lp1431\nsS'selectedClass'\np1432\n(lp1433\nssS'time'\np1434\nF1299764397.9064829\nsba(iOWContexts\nContext\np1435\n(dp1436\nS'noCopy'\np1437\n(lp1438\nS'orderedDomain'\np1439\nasS'attributes'\np1440\n(dp1441\nS'Gene'\np1442\ng18\n(S'Variable_Type'\n(I6\nttRp1443\nsS'norm_AX2_0s'\np1444\ng18\n(S'Variable_Type'\n(I2\nttRp1445\nssS'metas'\np1446\n(dp1447\nsS'values'\np1448\n(dp1449\nS'selectedMeta'\np1450\n(lp1451\nsS'metaAttributes'\np1452\n(lp1453\nsS'selectedChosen'\np1454\n(lp1455\nsS'chosenAttributes'\np1456\n(lp1457\n(S'norm_AX2_0s'\ng18\n(S'Variable_Type'\n(I2\nttRp1458\ntp1459\na(S'Gene'\ng18\n(S'Variable_Type'\n(I6\nttRp1460\ntp1461\nasS'classAttribute'\np1462\n(lp1463\nsS'selectedClass'\np1464\n(lp1465\nssS'time'\np1466\nF1299764397.9064829\nsba(iOWContexts\nContext\np1467\n(dp1468\nS'values'\np1469\n(dp1470\ng1375\n(lp1471\nsg1377\n(lp1472\nsg1379\n(lp1473\nsg1381\n(lp1474\n(S'norm_AX2_0s'\ng18\n(S'Variable_Type'\n(I2\nttRp1475\ntp1476\na(S'Gene'\ng18\n(S'Variable_Type'\n(I6\nttRp1477\ntp1478\nasg1387\n(lp1479\nsg1389\n(lp1480\nssS'attributes'\np1481\n(dp1482\nS'Gene'\np1483\ng18\n(S'Variable_Type'\n(I6\nttRp1484\nsS'norm_AX2_0s'\np1485\ng18\n(S'Variable_Type'\n(I2\nttRp1486\nssS'metas'\np1487\n(dp1488\nsS'noCopy'\np1489\n(lp1490\nS'orderedDomain'\np1491\nasS'time'\np1492\nF1299764397.90259\nsba(iOWContexts\nContext\np1493\n(dp1494\nS'noCopy'\np1495\n(lp1496\nS'orderedDomain'\np1497\nasS'attributes'\np1498\n(dp1499\nS'Gene'\np1500\ng18\n(S'Variable_Type'\n(I6\nttRp1501\nsS'norm_AX2_0s'\np1502\ng18\n(S'Variable_Type'\n(I2\nttRp1503\nssS'metas'\np1504\n(dp1505\nsS'values'\np1506\n(dp1507\ng1418\n(lp1508\nsg1420\n(lp1509\nsg1422\n(lp1510\nsg1424\n(lp1511\n(S'norm_AX2_0s'\ng18\n(S'Variable_Type'\n(I2\nttRp1512\ntp1513\na(S'Gene'\ng18\n(S'Variable_Type'\n(I6\nttRp1514\ntp1515\nasg1430\n(lp1516\nsg1432\n(lp1517\nssS'time'\np1518\nF1299764397.90259\nsba(iOWContexts\nContext\np1519\n(dp1520\nS'noCopy'\np1521\n(lp1522\nS'orderedDomain'\np1523\nasS'attributes'\np1524\n(dp1525\nS'Gene'\np1526\ng18\n(S'Variable_Type'\n(I6\nttRp1527\nsS'norm_AX2_0s'\np1528\ng18\n(S'Variable_Type'\n(I2\nttRp1529\nssS'metas'\np1530\n(dp1531\nsS'values'\np1532\n(dp1533\ng1450\n(lp1534\nsg1452\n(lp1535\nsg1454\n(lp1536\nsg1456\n(lp1537\n(S'norm_AX2_0s'\ng18\n(S'Variable_Type'\n(I2\nttRp1538\ntp1539\na(S'Gene'\ng18\n(S'Variable_Type'\n(I6\nttRp1540\ntp1541\nasg1462\n(lp1542\nsg1464\n(lp1543\nssS'time'\np1544\nF1299764397.90259\nsba(iOWContexts\nContext\np1545\n(dp1546\nS'values'\np1547\n(dp1548\ng1375\n(lp1549\nsg1377\n(lp1550\nsg1379\n(lp1551\nsg1381\n(lp1552\n(S'norm_AX2_0s'\ng18\n(S'Variable_Type'\n(I2\nttRp1553\ntp1554\na(S'Gene'\ng18\n(S'Variable_Type'\n(I6\nttRp1555\ntp1556\nasg1387\n(lp1557\nsg1389\n(lp1558\nssS'attributes'\np1559\n(dp1560\nS'Gene'\np1561\ng18\n(S'Variable_Type'\n(I6\nttRp1562\nsS'norm_AX2_0s'\np1563\ng18\n(S'Variable_Type'\n(I2\nttRp1564\nssS'metas'\np1565\n(dp1566\nsS'noCopy'\np1567\n(lp1568\nS'orderedDomain'\np1569\nasS'time'\np1570\nF1299764397.8986681\nsba(iOWContexts\nContext\np1571\n(dp1572\nS'noCopy'\np1573\n(lp1574\nS'orderedDomain'\np1575\nasS'attributes'\np1576\n(dp1577\nS'Gene'\np1578\ng18\n(S'Variable_Type'\n(I6\nttRp1579\nsS'norm_AX2_0s'\np1580\ng18\n(S'Variable_Type'\n(I2\nttRp1581\nssS'metas'\np1582\n(dp1583\nsS'values'\np1584\n(dp1585\ng1418\n(lp1586\nsg1420\n(lp1587\nsg1422\n(lp1588\nsg1424\n(lp1589\n(S'norm_AX2_0s'\ng18\n(S'Variable_Type'\n(I2\nttRp1590\ntp1591\na(S'Gene'\ng18\n(S'Variable_Type'\n(I6\nttRp1592\ntp1593\nasg1430\n(lp1594\nsg1432\n(lp1595\nssS'time'\np1596\nF1299764397.8986681\nsba(iOWContexts\nContext\np1597\n(dp1598\nS'noCopy'\np1599\n(lp1600\nS'orderedDomain'\np1601\nasS'attributes'\np1602\n(dp1603\nS'Gene'\np1604\ng18\n(S'Variable_Type'\n(I6\nttRp1605\nsS'norm_AX2_0s'\np1606\ng18\n(S'Variable_Type'\n(I2\nttRp1607\nssS'metas'\np1608\n(dp1609\nsS'values'\np1610\n(dp1611\ng1450\n(lp1612\nsg1452\n(lp1613\nsg1454\n(lp1614\nsg1456\n(lp1615\n(S'norm_AX2_0s'\ng18\n(S'Variable_Type'\n(I2\nttRp1616\ntp1617\na(S'Gene'\ng18\n(S'Variable_Type'\n(I6\nttRp1618\ntp1619\nasg1462\n(lp1620\nsg1464\n(lp1621\nssS'time'\np1622\nF1299764397.8986681\nsba(iOWContexts\nContext\np1623\n(dp1624\nS'values'\np1625\n(dp1626\ng1375\n(lp1627\nsg1377\n(lp1628\nsg1379\n(lp1629\nsg1381\n(lp1630\n(S'norm_AX2_0s'\ng18\n(S'Variable_Type'\n(I2\nttRp1631\ntp1632\na(S'Gene'\ng18\n(S'Variable_Type'\n(I6\nttRp1633\ntp1634\nasg1387\n(lp1635\nsg1389\n(lp1636\nssS'attributes'\np1637\n(dp1638\nS'Gene'\np1639\ng18\n(S'Variable_Type'\n(I6\nttRp1640\nsS'norm_AX2_0s'\np1641\ng18\n(S'Variable_Type'\n(I2\nttRp1642\nssS'metas'\np1643\n(dp1644\nsS'noCopy'\np1645\n(lp1646\nS'orderedDomain'\np1647\nasS'time'\np1648\nF1299764397.894779\nsba(iOWContexts\nContext\np1649\n(dp1650\nS'noCopy'\np1651\n(lp1652\nS'orderedDomain'\np1653\nasS'attributes'\np1654\n(dp1655\nS'Gene'\np1656\ng18\n(S'Variable_Type'\n(I6\nttRp1657\nsS'norm_AX2_0s'\np1658\ng18\n(S'Variable_Type'\n(I2\nttRp1659\nssS'metas'\np1660\n(dp1661\nsS'values'\np1662\n(dp1663\ng1418\n(lp1664\nsg1420\n(lp1665\nsg1422\n(lp1666\nsg1424\n(lp1667\n(S'norm_AX2_0s'\ng18\n(S'Variable_Type'\n(I2\nttRp1668\ntp1669\na(S'Gene'\ng18\n(S'Variable_Type'\n(I6\nttRp1670\ntp1671\nasg1430\n(lp1672\nsg1432\n(lp1673\nssS'time'\np1674\nF1299764397.894779\nsba(iOWContexts\nContext\np1675\n(dp1676\nS'noCopy'\np1677\n(lp1678\nS'orderedDomain'\np1679\nasS'attributes'\np1680\n(dp1681\nS'Gene'\np1682\ng18\n(S'Variable_Type'\n(I6\nttRp1683\nsS'norm_AX2_0s'\np1684\ng18\n(S'Variable_Type'\n(I2\nttRp1685\nssS'metas'\np1686\n(dp1687\nsS'values'\np1688\n(dp1689\ng1450\n(lp1690\nsg1452\n(lp1691\nsg1454\n(lp1692\nsg1456\n(lp1693\n(S'norm_AX2_0s'\ng18\n(S'Variable_Type'\n(I2\nttRp1694\ntp1695\na(S'Gene'\ng18\n(S'Variable_Type'\n(I6\nttRp1696\ntp1697\nasg1462\n(lp1698\nsg1464\n(lp1699\nssS'time'\np1700\nF1299764397.894779\nsba(iOWContexts\nContext\np1701\n(dp1702\nS'values'\np1703\n(dp1704\ng1375\n(lp1705\nsg1377\n(lp1706\nsg1379\n(lp1707\nsg1381\n(lp1708\n(S'norm_AX2_0s'\ng18\n(S'Variable_Type'\n(I2\nttRp1709\ntp1710\na(S'Gene'\ng18\n(S'Variable_Type'\n(I6\nttRp1711\ntp1712\nasg1387\n(lp1713\nsg1389\n(lp1714\nssS'attributes'\np1715\n(dp1716\nS'Gene'\np1717\ng18\n(S'Variable_Type'\n(I6\nttRp1718\nsS'norm_AX2_0s'\np1719\ng18\n(S'Variable_Type'\n(I2\nttRp1720\nssS'metas'\np1721\n(dp1722\nsS'noCopy'\np1723\n(lp1724\nS'orderedDomain'\np1725\nasS'time'\np1726\nF1299764397.889946\nsba(iOWContexts\nContext\np1727\n(dp1728\nS'noCopy'\np1729\n(lp1730\nS'orderedDomain'\np1731\nasS'attributes'\np1732\n(dp1733\nS'Gene'\np1734\ng18\n(S'Variable_Type'\n(I6\nttRp1735\nsS'norm_AX2_0s'\np1736\ng18\n(S'Variable_Type'\n(I2\nttRp1737\nssS'metas'\np1738\n(dp1739\nsS'values'\np1740\n(dp1741\ng1418\n(lp1742\nsg1420\n(lp1743\nsg1422\n(lp1744\nsg1424\n(lp1745\n(S'norm_AX2_0s'\ng18\n(S'Variable_Type'\n(I2\nttRp1746\ntp1747\na(S'Gene'\ng18\n(S'Variable_Type'\n(I6\nttRp1748\ntp1749\nasg1430\n(lp1750\nsg1432\n(lp1751\nssS'time'\np1752\nF1299764397.889946\nsba(iOWContexts\nContext\np1753\n(dp1754\nS'noCopy'\np1755\n(lp1756\nS'orderedDomain'\np1757\nasS'attributes'\np1758\n(dp1759\nS'Gene'\np1760\ng18\n(S'Variable_Type'\n(I6\nttRp1761\nsS'norm_AX2_0s'\np1762\ng18\n(S'Variable_Type'\n(I2\nttRp1763\nssS'metas'\np1764\n(dp1765\nsS'values'\np1766\n(dp1767\ng1450\n(lp1768\nsg1452\n(lp1769\nsg1454\n(lp1770\nsg1456\n(lp1771\n(S'norm_AX2_0s'\ng18\n(S'Variable_Type'\n(I2\nttRp1772\ntp1773\na(S'Gene'\ng18\n(S'Variable_Type'\n(I6\nttRp1774\ntp1775\nasg1462\n(lp1776\nsg1464\n(lp1777\nssS'time'\np1778\nF1299764397.889946\nsba(iOWContexts\nContext\np1779\n(dp1780\nS'values'\np1781\n(dp1782\ng1375\n(lp1783\nsg1377\n(lp1784\nsg1379\n(lp1785\nsg1381\n(lp1786\n(S'norm_AX2_0s'\ng18\n(S'Variable_Type'\n(I2\nttRp1787\ntp1788\na(S'Gene'\ng18\n(S'Variable_Type'\n(I6\nttRp1789\ntp1790\nasg1387\n(lp1791\nsg1389\n(lp1792\nssS'attributes'\np1793\n(dp1794\nS'Gene'\np1795\ng18\n(S'Variable_Type'\n(I6\nttRp1796\nsS'norm_AX2_0s'\np1797\ng18\n(S'Variable_Type'\n(I2\nttRp1798\nssS'metas'\np1799\n(dp1800\nsS'noCopy'\np1801\n(lp1802\nS'orderedDomain'\np1803\nasS'time'\np1804\nF1299764397.8860049\nsba(iOWContexts\nContext\np1805\n(dp1806\nS'noCopy'\np1807\n(lp1808\nS'orderedDomain'\np1809\nasS'attributes'\np1810\n(dp1811\nS'Gene'\np1812\ng18\n(S'Variable_Type'\n(I6\nttRp1813\nsS'norm_AX2_0s'\np1814\ng18\n(S'Variable_Type'\n(I2\nttRp1815\nssS'metas'\np1816\n(dp1817\nsS'values'\np1818\n(dp1819\ng1418\n(lp1820\nsg1420\n(lp1821\nsg1422\n(lp1822\nsg1424\n(lp1823\n(S'norm_AX2_0s'\ng18\n(S'Variable_Type'\n(I2\nttRp1824\ntp1825\na(S'Gene'\ng18\n(S'Variable_Type'\n(I6\nttRp1826\ntp1827\nasg1430\n(lp1828\nsg1432\n(lp1829\nssS'time'\np1830\nF1299764397.8860049\nsba(iOWContexts\nContext\np1831\n(dp1832\nS'noCopy'\np1833\n(lp1834\nS'orderedDomain'\np1835\nasS'attributes'\np1836\n(dp1837\nS'Gene'\np1838\ng18\n(S'Variable_Type'\n(I6\nttRp1839\nsS'norm_AX2_0s'\np1840\ng18\n(S'Variable_Type'\n(I2\nttRp1841\nssS'metas'\np1842\n(dp1843\nsS'values'\np1844\n(dp1845\ng1450\n(lp1846\nsg1452\n(lp1847\nsg1454\n(lp1848\nsg1456\n(lp1849\n(S'norm_AX2_0s'\ng18\n(S'Variable_Type'\n(I2\nttRp1850\ntp1851\na(S'Gene'\ng18\n(S'Variable_Type'\n(I6\nttRp1852\ntp1853\nasg1462\n(lp1854\nsg1464\n(lp1855\nssS'time'\np1856\nF1299764397.8860049\nsba(iOWContexts\nContext\np1857\n(dp1858\nS'values'\np1859\n(dp1860\ng1375\n(lp1861\nsg1377\n(lp1862\nsg1379\n(lp1863\nsg1381\n(lp1864\n(S'norm_AX2_0s'\ng18\n(S'Variable_Type'\n(I2\nttRp1865\ntp1866\na(S'Gene'\ng18\n(S'Variable_Type'\n(I6\nttRp1867\ntp1868\nasg1387\n(lp1869\nsg1389\n(lp1870\nssS'attributes'\np1871\n(dp1872\nS'Gene'\np1873\ng18\n(S'Variable_Type'\n(I6\nttRp1874\nsS'norm_AX2_0s'\np1875\ng18\n(S'Variable_Type'\n(I2\nttRp1876\nssS'metas'\np1877\n(dp1878\nsS'noCopy'\np1879\n(lp1880\nS'orderedDomain'\np1881\nasS'time'\np1882\nF1299764397.8820901\nsba(iOWContexts\nContext\np1883\n(dp1884\nS'noCopy'\np1885\n(lp1886\nS'orderedDomain'\np1887\nasS'attributes'\np1888\n(dp1889\nS'Gene'\np1890\ng18\n(S'Variable_Type'\n(I6\nttRp1891\nsS'norm_AX2_0s'\np1892\ng18\n(S'Variable_Type'\n(I2\nttRp1893\nssS'metas'\np1894\n(dp1895\nsS'values'\np1896\n(dp1897\ng1418\n(lp1898\nsg1420\n(lp1899\nsg1422\n(lp1900\nsg1424\n(lp1901\n(S'norm_AX2_0s'\ng18\n(S'Variable_Type'\n(I2\nttRp1902\ntp1903\na(S'Gene'\ng18\n(S'Variable_Type'\n(I6\nttRp1904\ntp1905\nasg1430\n(lp1906\nsg1432\n(lp1907\nssS'time'\np1908\nF1299764397.8820901\nsba(iOWContexts\nContext\np1909\n(dp1910\nS'noCopy'\np1911\n(lp1912\nS'orderedDomain'\np1913\nasS'attributes'\np1914\n(dp1915\nS'Gene'\np1916\ng18\n(S'Variable_Type'\n(I6\nttRp1917\nsS'norm_AX2_0s'\np1918\ng18\n(S'Variable_Type'\n(I2\nttRp1919\nssS'metas'\np1920\n(dp1921\nsS'values'\np1922\n(dp1923\ng1450\n(lp1924\nsg1452\n(lp1925\nsg1454\n(lp1926\nsg1456\n(lp1927\n(S'norm_AX2_0s'\ng18\n(S'Variable_Type'\n(I2\nttRp1928\ntp1929\na(S'Gene'\ng18\n(S'Variable_Type'\n(I6\nttRp1930\ntp1931\nasg1462\n(lp1932\nsg1464\n(lp1933\nssS'time'\np1934\nF1299764397.8820901\nsba(iOWContexts\nContext\np1935\n(dp1936\nS'values'\np1937\n(dp1938\ng1375\n(lp1939\nsg1377\n(lp1940\nsg1379\n(lp1941\nsg1381\n(lp1942\n(S'norm_AX2_0s'\ng18\n(S'Variable_Type'\n(I2\nttRp1943\ntp1944\na(S'Gene'\ng18\n(S'Variable_Type'\n(I6\nttRp1945\ntp1946\nasg1387\n(lp1947\nsg1389\n(lp1948\nssS'attributes'\np1949\n(dp1950\nS'Gene'\np1951\ng18\n(S'Variable_Type'\n(I6\nttRp1952\nsS'norm_AX2_0s'\np1953\ng18\n(S'Variable_Type'\n(I2\nttRp1954\nssS'metas'\np1955\n(dp1956\nsS'noCopy'\np1957\n(lp1958\nS'orderedDomain'\np1959\nasS'time'\np1960\nF1299764397.8781681\nsba(iOWContexts\nContext\np1961\n(dp1962\nS'noCopy'\np1963\n(lp1964\nS'orderedDomain'\np1965\nasS'attributes'\np1966\n(dp1967\nS'Gene'\np1968\ng18\n(S'Variable_Type'\n(I6\nttRp1969\nsS'norm_AX2_0s'\np1970\ng18\n(S'Variable_Type'\n(I2\nttRp1971\nssS'metas'\np1972\n(dp1973\nsS'values'\np1974\n(dp1975\ng1418\n(lp1976\nsg1420\n(lp1977\nsg1422\n(lp1978\nsg1424\n(lp1979\n(S'norm_AX2_0s'\ng18\n(S'Variable_Type'\n(I2\nttRp1980\ntp1981\na(S'Gene'\ng18\n(S'Variable_Type'\n(I6\nttRp1982\ntp1983\nasg1430\n(lp1984\nsg1432\n(lp1985\nssS'time'\np1986\nF1299764397.8781681\nsba(iOWContexts\nContext\np1987\n(dp1988\nS'noCopy'\np1989\n(lp1990\nS'orderedDomain'\np1991\nasS'attributes'\np1992\n(dp1993\nS'Gene'\np1994\ng18\n(S'Variable_Type'\n(I6\nttRp1995\nsS'norm_AX2_0s'\np1996\ng18\n(S'Variable_Type'\n(I2\nttRp1997\nssS'metas'\np1998\n(dp1999\nsS'values'\np2000\n(dp2001\ng1450\n(lp2002\nsg1452\n(lp2003\nsg1454\n(lp2004\nsg1456\n(lp2005\n(S'norm_AX2_0s'\ng18\n(S'Variable_Type'\n(I2\nttRp2006\ntp2007\na(S'Gene'\ng18\n(S'Variable_Type'\n(I6\nttRp2008\ntp2009\nasg1462\n(lp2010\nsg1464\n(lp2011\nssS'time'\np2012\nF1299764397.8781681\nsba(iOWContexts\nContext\np2013\n(dp2014\nS'values'\np2015\n(dp2016\ng1375\n(lp2017\nsg1377\n(lp2018\nsg1379\n(lp2019\nsg1381\n(lp2020\n(S'norm_AX2_0s'\ng18\n(S'Variable_Type'\n(I2\nttRp2021\ntp2022\na(S'Gene'\ng18\n(S'Variable_Type'\n(I6\nttRp2023\ntp2024\nasg1387\n(lp2025\nsg1389\n(lp2026\nssS'attributes'\np2027\n(dp2028\nS'Gene'\np2029\ng18\n(S'Variable_Type'\n(I6\nttRp2030\nsS'norm_AX2_0s'\np2031\ng18\n(S'Variable_Type'\n(I2\nttRp2032\nssS'metas'\np2033\n(dp2034\nsS'noCopy'\np2035\n(lp2036\nS'orderedDomain'\np2037\nasS'time'\np2038\nF1299764397.8742659\nsba(iOWContexts\nContext\np2039\n(dp2040\nS'noCopy'\np2041\n(lp2042\nS'orderedDomain'\np2043\nasS'attributes'\np2044\n(dp2045\nS'Gene'\np2046\ng18\n(S'Variable_Type'\n(I6\nttRp2047\nsS'norm_AX2_0s'\np2048\ng18\n(S'Variable_Type'\n(I2\nttRp2049\nssS'metas'\np2050\n(dp2051\nsS'values'\np2052\n(dp2053\ng1418\n(lp2054\nsg1420\n(lp2055\nsg1422\n(lp2056\nsg1424\n(lp2057\n(S'norm_AX2_0s'\ng18\n(S'Variable_Type'\n(I2\nttRp2058\ntp2059\na(S'Gene'\ng18\n(S'Variable_Type'\n(I6\nttRp2060\ntp2061\nasg1430\n(lp2062\nsg1432\n(lp2063\nssS'time'\np2064\nF1299764397.8742659\nsba(iOWContexts\nContext\np2065\n(dp2066\nS'noCopy'\np2067\n(lp2068\nS'orderedDomain'\np2069\nasS'attributes'\np2070\n(dp2071\nS'Gene'\np2072\ng18\n(S'Variable_Type'\n(I6\nttRp2073\nsS'norm_AX2_0s'\np2074\ng18\n(S'Variable_Type'\n(I2\nttRp2075\nssS'metas'\np2076\n(dp2077\nsS'values'\np2078\n(dp2079\ng1450\n(lp2080\nsg1452\n(lp2081\nsg1454\n(lp2082\nsg1456\n(lp2083\n(S'norm_AX2_0s'\ng18\n(S'Variable_Type'\n(I2\nttRp2084\ntp2085\na(S'Gene'\ng18\n(S'Variable_Type'\n(I6\nttRp2086\ntp2087\nasg1462\n(lp2088\nsg1464\n(lp2089\nssS'time'\np2090\nF1299764397.8742659\nsba(iOWContexts\nContext\np2091\n(dp2092\nS'values'\np2093\n(dp2094\ng1375\n(lp2095\nsg1377\n(lp2096\nsg1379\n(lp2097\nsg1381\n(lp2098\n(S'norm_AX2_0s'\ng18\n(S'Variable_Type'\n(I2\nttRp2099\ntp2100\na(S'Gene'\ng18\n(S'Variable_Type'\n(I6\nttRp2101\ntp2102\nasg1387\n(lp2103\nsg1389\n(lp2104\nssS'attributes'\np2105\n(dp2106\nS'Gene'\np2107\ng18\n(S'Variable_Type'\n(I6\nttRp2108\nsS'norm_AX2_0s'\np2109\ng18\n(S'Variable_Type'\n(I2\nttRp2110\nssS'metas'\np2111\n(dp2112\nsS'noCopy'\np2113\n(lp2114\nS'orderedDomain'\np2115\nasS'time'\np2116\nF1299764397.869561\nsba(iOWContexts\nContext\np2117\n(dp2118\nS'noCopy'\np2119\n(lp2120\nS'orderedDomain'\np2121\nasS'attributes'\np2122\n(dp2123\nS'Gene'\np2124\ng18\n(S'Variable_Type'\n(I6\nttRp2125\nsS'norm_AX2_0s'\np2126\ng18\n(S'Variable_Type'\n(I2\nttRp2127\nssS'metas'\np2128\n(dp2129\nsS'values'\np2130\n(dp2131\ng1418\n(lp2132\nsg1420\n(lp2133\nsg1422\n(lp2134\nsg1424\n(lp2135\n(S'norm_AX2_0s'\ng18\n(S'Variable_Type'\n(I2\nttRp2136\ntp2137\na(S'Gene'\ng18\n(S'Variable_Type'\n(I6\nttRp2138\ntp2139\nasg1430\n(lp2140\nsg1432\n(lp2141\nssS'time'\np2142\nF1299764397.869561\nsba(iOWContexts\nContext\np2143\n(dp2144\nS'noCopy'\np2145\n(lp2146\nS'orderedDomain'\np2147\nasS'attributes'\np2148\n(dp2149\nS'Gene'\np2150\ng18\n(S'Variable_Type'\n(I6\nttRp2151\nsS'norm_AX2_0s'\np2152\ng18\n(S'Variable_Type'\n(I2\nttRp2153\nssS'metas'\np2154\n(dp2155\nsS'values'\np2156\n(dp2157\ng1450\n(lp2158\nsg1452\n(lp2159\nsg1454\n(lp2160\nsg1456\n(lp2161\n(S'norm_AX2_0s'\ng18\n(S'Variable_Type'\n(I2\nttRp2162\ntp2163\na(S'Gene'\ng18\n(S'Variable_Type'\n(I6\nttRp2164\ntp2165\nasg1462\n(lp2166\nsg1464\n(lp2167\nssS'time'\np2168\nF1299764397.869561\nsba(iOWContexts\nContext\np2169\n(dp2170\nS'values'\np2171\n(dp2172\ng1375\n(lp2173\nsg1377\n(lp2174\nsg1379\n(lp2175\nsg1381\n(lp2176\n(S'norm_AX2_0s'\ng18\n(S'Variable_Type'\n(I2\nttRp2177\ntp2178\na(S'Gene'\ng18\n(S'Variable_Type'\n(I6\nttRp2179\ntp2180\nasg1387\n(lp2181\nsg1389\n(lp2182\nssS'attributes'\np2183\n(dp2184\nS'Gene'\np2185\ng18\n(S'Variable_Type'\n(I6\nttRp2186\nsS'norm_AX2_0s'\np2187\ng18\n(S'Variable_Type'\n(I2\nttRp2188\nssS'metas'\np2189\n(dp2190\nsS'noCopy'\np2191\n(lp2192\nS'orderedDomain'\np2193\nasS'time'\np2194\nF1299764397.8656161\nsba(iOWContexts\nContext\np2195\n(dp2196\nS'noCopy'\np2197\n(lp2198\nS'orderedDomain'\np2199\nasS'attributes'\np2200\n(dp2201\nS'Gene'\np2202\ng18\n(S'Variable_Type'\n(I6\nttRp2203\nsS'norm_AX2_0s'\np2204\ng18\n(S'Variable_Type'\n(I2\nttRp2205\nssS'metas'\np2206\n(dp2207\nsS'values'\np2208\n(dp2209\ng1418\n(lp2210\nsg1420\n(lp2211\nsg1422\n(lp2212\nsg1424\n(lp2213\n(S'norm_AX2_0s'\ng18\n(S'Variable_Type'\n(I2\nttRp2214\ntp2215\na(S'Gene'\ng18\n(S'Variable_Type'\n(I6\nttRp2216\ntp2217\nasg1430\n(lp2218\nsg1432\n(lp2219\nssS'time'\np2220\nF1299764397.8656161\nsba(iOWContexts\nContext\np2221\n(dp2222\nS'noCopy'\np2223\n(lp2224\nS'orderedDomain'\np2225\nasS'attributes'\np2226\n(dp2227\nS'Gene'\np2228\ng18\n(S'Variable_Type'\n(I6\nttRp2229\nsS'norm_AX2_0s'\np2230\ng18\n(S'Variable_Type'\n(I2\nttRp2231\nssS'metas'\np2232\n(dp2233\nsS'values'\np2234\n(dp2235\ng1450\n(lp2236\nsg1452\n(lp2237\nsg1454\n(lp2238\nsg1456\n(lp2239\n(S'norm_AX2_0s'\ng18\n(S'Variable_Type'\n(I2\nttRp2240\ntp2241\na(S'Gene'\ng18\n(S'Variable_Type'\n(I6\nttRp2242\ntp2243\nasg1462\n(lp2244\nsg1464\n(lp2245\nssS'time'\np2246\nF1299764397.8656161\nsba(iOWContexts\nContext\np2247\n(dp2248\nS'values'\np2249\n(dp2250\ng1375\n(lp2251\nsg1377\n(lp2252\nsg1379\n(lp2253\nsg1381\n(lp2254\n(S'norm_AX2_0s'\ng18\n(S'Variable_Type'\n(I2\nttRp2255\ntp2256\na(S'Gene'\ng18\n(S'Variable_Type'\n(I6\nttRp2257\ntp2258\nasg1387\n(lp2259\nsg1389\n(lp2260\nssS'attributes'\np2261\n(dp2262\nS'Gene'\np2263\ng18\n(S'Variable_Type'\n(I6\nttRp2264\nsS'norm_AX2_0s'\np2265\ng18\n(S'Variable_Type'\n(I2\nttRp2266\nssS'metas'\np2267\n(dp2268\nsS'noCopy'\np2269\n(lp2270\nS'orderedDomain'\np2271\nasS'time'\np2272\nF1299764397.8618031\nsba(iOWContexts\nContext\np2273\n(dp2274\nS'noCopy'\np2275\n(lp2276\nS'orderedDomain'\np2277\nasS'attributes'\np2278\n(dp2279\nS'Gene'\np2280\ng18\n(S'Variable_Type'\n(I6\nttRp2281\nsS'norm_AX2_0s'\np2282\ng18\n(S'Variable_Type'\n(I2\nttRp2283\nssS'metas'\np2284\n(dp2285\nsS'values'\np2286\n(dp2287\ng1418\n(lp2288\nsg1420\n(lp2289\nsg1422\n(lp2290\nsg1424\n(lp2291\n(S'norm_AX2_0s'\ng18\n(S'Variable_Type'\n(I2\nttRp2292\ntp2293\na(S'Gene'\ng18\n(S'Variable_Type'\n(I6\nttRp2294\ntp2295\nasg1430\n(lp2296\nsg1432\n(lp2297\nssS'time'\np2298\nF1299764397.8618031\nsba(iOWContexts\nContext\np2299\n(dp2300\nS'noCopy'\np2301\n(lp2302\nS'orderedDomain'\np2303\nasS'attributes'\np2304\n(dp2305\nS'Gene'\np2306\ng18\n(S'Variable_Type'\n(I6\nttRp2307\nsS'norm_AX2_0s'\np2308\ng18\n(S'Variable_Type'\n(I2\nttRp2309\nssS'metas'\np2310\n(dp2311\nsS'values'\np2312\n(dp2313\ng1450\n(lp2314\nsg1452\n(lp2315\nsg1454\n(lp2316\nsg1456\n(lp2317\n(S'norm_AX2_0s'\ng18\n(S'Variable_Type'\n(I2\nttRp2318\ntp2319\na(S'Gene'\ng18\n(S'Variable_Type'\n(I6\nttRp2320\ntp2321\nasg1462\n(lp2322\nsg1464\n(lp2323\nssS'time'\np2324\nF1299764397.8618031\nsbas."
p3
sS'Data Sampler'
p4
S"(dp1\nS'CVFolds'\np2\nI2\nsS'widgetXPosition'\np3\nI220\nsS'widgetYPosition'\np4\nI174\nsS'LOO'\np5\nI1\nsS'widgetWidth'\np6\nI350\nsS'selPercentage'\np7\nI50\nsS'Repeat'\np8\nI01\nsS'RandomSeed'\np9\nI0\nsS'pGroups'\np10\n(lp11\nF0.10000000000000001\naF0.25\naF0.5\nasS'widgetHeight'\np12\nI632\nsS'SelectType'\np13\nI0\nsS'savedWidgetGeometry'\np14\nS'\\x01\\xd9\\xd0\\xcb\\x00\\x01\\x00\\x00\\x00\\x00\\x00\\xdc\\x00\\x00\\x00\\xae\\x00\\x00\\x029\\x00\\x00\\x03;\\x00\\x00\\x00\\xdc\\x00\\x00\\x00\\xc4\\x00\\x00\\x029\\x00\\x00\\x03;\\x00\\x00\\x00\\x00\\x00\\x00'\np15\nsS'nGroups'\np16\nI3\nsS'widgetShown'\np17\nI0\nsS'GroupSeed'\np18\nI1\nsS'Stratified'\np19\nI00\nsS'outFold'\np20\nI1\nsS'useCases'\np21\nI01\nsS'localContextsVersion'\np22\n(I100\nI0\ntp23\nsS'localContexts'\np24\n(lp25\n(iOWContexts\nContext\np26\n(dp27\nS'metas'\np28\n(dp29\nsS'values'\np30\n(dp31\nS'nCases'\np32\n(I500\nI-2\ntp33\nsS'selPercentage'\np34\n(I50\nI-2\ntp35\nssS'time'\np36\nF1307092010.0095451\nsS'attributes'\np37\n(dp38\nS'function'\np39\ncorange\n__pickleLoaderNamedConstants\np40\n(S'Variable_Type'\n(I1\nttRp41\nsS'spo- mid'\np42\ng40\n(S'Variable_Type'\n(I2\nttRp43\nsS'diau f'\np44\ng40\n(S'Variable_Type'\n(I2\nttRp45\nssS'noCopy'\np46\n(lp47\nS'orderedDomain'\np48\nasba(iOWContexts\nContext\np49\n(dp50\nS'values'\np51\n(dp52\nS'nCases'\np53\n(I500\nI-2\ntp54\nsS'selPercentage'\np55\n(I50\nI-2\ntp56\nssS'attributes'\np57\n(dp58\nS'170'\np59\ng40\n(S'Variable_Type'\n(I2\nttRp60\nsS'171'\np61\ng40\n(S'Variable_Type'\n(I2\nttRp62\nsS'154'\np63\ng40\n(S'Variable_Type'\n(I2\nttRp64\nsS'159'\np65\ng40\n(S'Variable_Type'\n(I2\nttRp66\nsS'168'\np67\ng40\n(S'Variable_Type'\n(I2\nttRp68\nsS'169'\np69\ng40\n(S'Variable_Type'\n(I2\nttRp70\nsS'164'\np71\ng40\n(S'Variable_Type'\n(I2\nttRp72\nsS'165'\np73\ng40\n(S'Variable_Type'\n(I2\nttRp74\nsS'166'\np75\ng40\n(S'Variable_Type'\n(I2\nttRp76\nsS'167'\np77\ng40\n(S'Variable_Type'\n(I2\nttRp78\nsS'160'\np79\ng40\n(S'Variable_Type'\n(I2\nttRp80\nsS'161'\np81\ng40\n(S'Variable_Type'\n(I2\nttRp82\nsS'162'\np83\ng40\n(S'Variable_Type'\n(I2\nttRp84\nsS'163'\np85\ng40\n(S'Variable_Type'\n(I2\nttRp86\nssS'metas'\np87\n(dp88\nsS'noCopy'\np89\n(lp90\nS'orderedDomain'\np91\nasS'time'\np92\nF1306155005.7240889\nsba(iOWContexts\nContext\np93\n(dp94\ng51\n(dp95\nS'nCases'\np96\n(I500\nI-2\ntp97\nsS'selPercentage'\np98\n(I50\nI-2\ntp99\nssg57\n(dp100\nS'151'\np101\ng40\n(S'Variable_Type'\n(I2\nttRp102\nsS'150'\np103\ng40\n(S'Variable_Type'\n(I2\nttRp104\nsS'153'\np105\ng40\n(S'Variable_Type'\n(I2\nttRp106\nsS'152'\np107\ng40\n(S'Variable_Type'\n(I2\nttRp108\nsS'155'\np109\ng40\n(S'Variable_Type'\n(I2\nttRp110\nsS'154'\np111\ng40\n(S'Variable_Type'\n(I2\nttRp112\nsS'157'\np113\ng40\n(S'Variable_Type'\n(I2\nttRp114\nsS'156'\np115\ng40\n(S'Variable_Type'\n(I2\nttRp116\nsS'159'\np117\ng40\n(S'Variable_Type'\n(I2\nttRp118\nsS'158'\np119\ng40\n(S'Variable_Type'\n(I2\nttRp120\nsS'171'\np121\ng40\n(S'Variable_Type'\n(I2\nttRp122\nsS'170'\np123\ng40\n(S'Variable_Type'\n(I2\nttRp124\nsS'146'\np125\ng40\n(S'Variable_Type'\n(I2\nttRp126\nsS'147'\np127\ng40\n(S'Variable_Type'\n(I2\nttRp128\nsS'145'\np129\ng40\n(S'Variable_Type'\n(I2\nttRp130\nsS'143'\np131\ng40\n(S'Variable_Type'\n(I2\nttRp132\nsS'148'\np133\ng40\n(S'Variable_Type'\n(I2\nttRp134\nsS'149'\np135\ng40\n(S'Variable_Type'\n(I2\nttRp136\nsS'168'\np137\ng40\n(S'Variable_Type'\n(I2\nttRp138\nsS'169'\np139\ng40\n(S'Variable_Type'\n(I2\nttRp140\nsS'164'\np141\ng40\n(S'Variable_Type'\n(I2\nttRp142\nsS'165'\np143\ng40\n(S'Variable_Type'\n(I2\nttRp144\nsS'166'\np145\ng40\n(S'Variable_Type'\n(I2\nttRp146\nsS'167'\np147\ng40\n(S'Variable_Type'\n(I2\nttRp148\nsS'160'\np149\ng40\n(S'Variable_Type'\n(I2\nttRp150\nsS'161'\np151\ng40\n(S'Variable_Type'\n(I2\nttRp152\nsS'162'\np153\ng40\n(S'Variable_Type'\n(I2\nttRp154\nsS'163'\np155\ng40\n(S'Variable_Type'\n(I2\nttRp156\nssg87\n(dp157\nsg89\n(lp158\ng91\nasg92\nF1305824278.080421\nsba(iOWContexts\nContext\np159\n(dp160\nS'noCopy'\np161\n(lp162\nS'orderedDomain'\np163\nasS'attributes'\np164\n(dp165\nS'status'\np166\ng40\n(S'Variable_Type'\n(I1\nttRp167\nsS'age'\np168\ng40\n(S'Variable_Type'\n(I1\nttRp169\nsS'survived'\np170\ng40\n(S'Variable_Type'\n(I1\nttRp171\nsS'sex'\np172\ng40\n(S'Variable_Type'\n(I1\nttRp173\nssS'metas'\np174\n(dp175\nsS'values'\np176\n(dp177\nS'nCases'\np178\n(I200\nI-2\ntp179\nsS'selPercentage'\np180\n(I70\nI-2\ntp181\nssS'time'\np182\nF1304930720.659467\nsba(iOWContexts\nContext\np183\n(dp184\nS'noCopy'\np185\n(lp186\nS'orderedDomain'\np187\nasS'attributes'\np188\n(dp189\nS'sepal width'\np190\ng40\n(S'Variable_Type'\n(I2\nttRp191\nsS'petal width'\np192\ng40\n(S'Variable_Type'\n(I2\nttRp193\nsS'petal length'\np194\ng40\n(S'Variable_Type'\n(I2\nttRp195\nsS'sepal length'\np196\ng40\n(S'Variable_Type'\n(I2\nttRp197\nsS'iris'\np198\ng40\n(S'Variable_Type'\n(I1\nttRp199\nssS'metas'\np200\n(dp201\nsS'values'\np202\n(dp203\nS'nCases'\np204\n(I10\nI-2\ntp205\nsS'selPercentage'\np206\n(I70\nI-2\ntp207\nssS'time'\np208\nF1304674932.748323\nsba(iOWContexts\nContext\np209\n(dp210\nS'values'\np211\n(dp212\nS'nCases'\np213\n(I72\nI-2\ntp214\nsS'selPercentage'\np215\n(I10\nI-2\ntp216\nssS'attributes'\np217\n(dp218\nS'Elu 270'\np219\ng40\n(S'Variable_Type'\n(I2\nttRp220\nsS'spo5 7'\np221\ng40\n(S'Variable_Type'\n(I2\nttRp222\nsS'alpha 0'\np223\ng40\n(S'Variable_Type'\n(I2\nttRp224\nsS'alpha 56'\np225\ng40\n(S'Variable_Type'\n(I2\nttRp226\nsS'Elu 210'\np227\ng40\n(S'Variable_Type'\n(I2\nttRp228\nsS'Elu 60'\np229\ng40\n(S'Variable_Type'\n(I2\nttRp230\nsS'cold 160'\np231\ng40\n(S'Variable_Type'\n(I2\nttRp232\nsS'Elu 330'\np233\ng40\n(S'Variable_Type'\n(I2\nttRp234\nsS'cold 0'\np235\ng40\n(S'Variable_Type'\n(I2\nttRp236\nsS'spo- mid'\np237\ng40\n(S'Variable_Type'\n(I2\nttRp238\nsS'dtt 15'\np239\ng40\n(S'Variable_Type'\n(I2\nttRp240\nsS'spo 9'\np241\ng40\n(S'Variable_Type'\n(I2\nttRp242\nsS'alpha 91'\np243\ng40\n(S'Variable_Type'\n(I2\nttRp244\nsS'alpha 112'\np245\ng40\n(S'Variable_Type'\n(I2\nttRp246\nsS'alpha 105'\np247\ng40\n(S'Variable_Type'\n(I2\nttRp248\nsS'dtt 30'\np249\ng40\n(S'Variable_Type'\n(I2\nttRp250\nsS'spo5 2'\np251\ng40\n(S'Variable_Type'\n(I2\nttRp252\nsS'Elu 150'\np253\ng40\n(S'Variable_Type'\n(I2\nttRp254\nsS'cold 20'\np255\ng40\n(S'Variable_Type'\n(I2\nttRp256\nsS'Elu 390'\np257\ng40\n(S'Variable_Type'\n(I2\nttRp258\nsS'alpha 7'\np259\ng40\n(S'Variable_Type'\n(I2\nttRp260\nsS'heat 80'\np261\ng40\n(S'Variable_Type'\n(I2\nttRp262\nsS'diau a'\np263\ng40\n(S'Variable_Type'\n(I2\nttRp264\nsS'diau c'\np265\ng40\n(S'Variable_Type'\n(I2\nttRp266\nsS'diau b'\np267\ng40\n(S'Variable_Type'\n(I2\nttRp268\nsS'diau e'\np269\ng40\n(S'Variable_Type'\n(I2\nttRp270\nsS'diau d'\np271\ng40\n(S'Variable_Type'\n(I2\nttRp272\nsS'spo5 11'\np273\ng40\n(S'Variable_Type'\n(I2\nttRp274\nsS'diau f'\np275\ng40\n(S'Variable_Type'\n(I2\nttRp276\nsS'cold 40'\np277\ng40\n(S'Variable_Type'\n(I2\nttRp278\nsS'alpha 28'\np279\ng40\n(S'Variable_Type'\n(I2\nttRp280\nsS'Elu 30'\np281\ng40\n(S'Variable_Type'\n(I2\nttRp282\nsS'alpha 98'\np283\ng40\n(S'Variable_Type'\n(I2\nttRp284\nsS'function'\np285\ng40\n(S'Variable_Type'\n(I1\nttRp286\nsS'heat 40'\np287\ng40\n(S'Variable_Type'\n(I2\nttRp288\nsS'alpha 42'\np289\ng40\n(S'Variable_Type'\n(I2\nttRp290\nsS'cdc15 170'\np291\ng40\n(S'Variable_Type'\n(I2\nttRp292\nsS'alpha 63'\np293\ng40\n(S'Variable_Type'\n(I2\nttRp294\nsS'Elu 360'\np295\ng40\n(S'Variable_Type'\n(I2\nttRp296\nsS'heat 160'\np297\ng40\n(S'Variable_Type'\n(I2\nttRp298\nsS'dtt 120'\np299\ng40\n(S'Variable_Type'\n(I2\nttRp300\nsS'alpha 49'\np301\ng40\n(S'Variable_Type'\n(I2\nttRp302\nsS'Elu 180'\np303\ng40\n(S'Variable_Type'\n(I2\nttRp304\nsS'heat 20'\np305\ng40\n(S'Variable_Type'\n(I2\nttRp306\nsS'Elu 240'\np307\ng40\n(S'Variable_Type'\n(I2\nttRp308\nsS'cdc15 150'\np309\ng40\n(S'Variable_Type'\n(I2\nttRp310\nsS'alpha 84'\np311\ng40\n(S'Variable_Type'\n(I2\nttRp312\nsS'cdc15 110'\np313\ng40\n(S'Variable_Type'\n(I2\nttRp314\nsS'cdc15 290'\np315\ng40\n(S'Variable_Type'\n(I2\nttRp316\nsS'alpha 119'\np317\ng40\n(S'Variable_Type'\n(I2\nttRp318\nsS'cdc15 30'\np319\ng40\n(S'Variable_Type'\n(I2\nttRp320\nsS'cdc15 130'\np321\ng40\n(S'Variable_Type'\n(I2\nttRp322\nsS'spo 11'\np323\ng40\n(S'Variable_Type'\n(I2\nttRp324\nsS'Elu 90'\np325\ng40\n(S'Variable_Type'\n(I2\nttRp326\nsS'cdc15 270'\np327\ng40\n(S'Variable_Type'\n(I2\nttRp328\nsS'diau g'\np329\ng40\n(S'Variable_Type'\n(I2\nttRp330\nsS'cdc15 230'\np331\ng40\n(S'Variable_Type'\n(I2\nttRp332\nsS'spo 0'\np333\ng40\n(S'Variable_Type'\n(I2\nttRp334\nsS'spo 2'\np335\ng40\n(S'Variable_Type'\n(I2\nttRp336\nsS'spo 5'\np337\ng40\n(S'Variable_Type'\n(I2\nttRp338\nsS'spo 7'\np339\ng40\n(S'Variable_Type'\n(I2\nttRp340\nsS'cdc15 250'\np341\ng40\n(S'Variable_Type'\n(I2\nttRp342\nsS'Elu 120'\np343\ng40\n(S'Variable_Type'\n(I2\nttRp344\nsS'Elu 0'\np345\ng40\n(S'Variable_Type'\n(I2\nttRp346\nsS'cdc15 90'\np347\ng40\n(S'Variable_Type'\n(I2\nttRp348\nsS'cdc15 190'\np349\ng40\n(S'Variable_Type'\n(I2\nttRp350\nsS'Elu 300'\np351\ng40\n(S'Variable_Type'\n(I2\nttRp352\nsS'cdc15 50'\np353\ng40\n(S'Variable_Type'\n(I2\nttRp354\nsS'alpha 35'\np355\ng40\n(S'Variable_Type'\n(I2\nttRp356\nsS'cdc15 10'\np357\ng40\n(S'Variable_Type'\n(I2\nttRp358\nsS'spo- early'\np359\ng40\n(S'Variable_Type'\n(I2\nttRp360\nsS'heat 10'\np361\ng40\n(S'Variable_Type'\n(I2\nttRp362\nsS'heat 0'\np363\ng40\n(S'Variable_Type'\n(I2\nttRp364\nsS'cdc15 210'\np365\ng40\n(S'Variable_Type'\n(I2\nttRp366\nsS'cdc15 70'\np367\ng40\n(S'Variable_Type'\n(I2\nttRp368\nsS'alpha 70'\np369\ng40\n(S'Variable_Type'\n(I2\nttRp370\nsS'alpha 14'\np371\ng40\n(S'Variable_Type'\n(I2\nttRp372\nsS'dtt 60'\np373\ng40\n(S'Variable_Type'\n(I2\nttRp374\nsS'alpha 77'\np375\ng40\n(S'Variable_Type'\n(I2\nttRp376\nsS'alpha 21'\np377\ng40\n(S'Variable_Type'\n(I2\nttRp378\nssS'metas'\np379\n(dp380\nsS'noCopy'\np381\n(lp382\nS'orderedDomain'\np383\nasS'time'\np384\nF1303299409.6972139\nsba(iOWContexts\nContext\np385\n(dp386\nS'noCopy'\np387\n(lp388\nS'orderedDomain'\np389\nasS'attributes'\np390\n(dp391\nS'289'\np392\ng40\n(S'Variable_Type'\n(I2\nttRp393\nsS'345'\np394\ng40\n(S'Variable_Type'\n(I2\nttRp395\nsS'346'\np396\ng40\n(S'Variable_Type'\n(I2\nttRp397\nsS'347'\np398\ng40\n(S'Variable_Type'\n(I2\nttRp399\nsS'340'\np400\ng40\n(S'Variable_Type'\n(I2\nttRp401\nsS'341'\np402\ng40\n(S'Variable_Type'\n(I2\nttRp403\nsS'342'\np404\ng40\n(S'Variable_Type'\n(I2\nttRp405\nsS'343'\np406\ng40\n(S'Variable_Type'\n(I2\nttRp407\nsS'281'\np408\ng40\n(S'Variable_Type'\n(I2\nttRp409\nsS'280'\np410\ng40\n(S'Variable_Type'\n(I2\nttRp411\nsS'283'\np412\ng40\n(S'Variable_Type'\n(I2\nttRp413\nsS'282'\np414\ng40\n(S'Variable_Type'\n(I2\nttRp415\nsS'348'\np416\ng40\n(S'Variable_Type'\n(I2\nttRp417\nsS'349'\np418\ng40\n(S'Variable_Type'\n(I2\nttRp419\nsS'287'\np420\ng40\n(S'Variable_Type'\n(I2\nttRp421\nssS'metas'\np422\n(dp423\nsS'values'\np424\n(dp425\nS'nCases'\np426\n(I7000\nI-2\ntp427\nsS'selPercentage'\np428\n(I50\nI-2\ntp429\nssS'time'\np430\nF1302870862.3963079\nsba(iOWContexts\nContext\np431\n(dp432\nS'noCopy'\np433\n(lp434\nS'orderedDomain'\np435\nasS'attributes'\np436\n(dp437\nS'319'\np438\ng40\n(S'Variable_Type'\n(I2\nttRp439\nsS'318'\np440\ng40\n(S'Variable_Type'\n(I2\nttRp441\nsS'313'\np442\ng40\n(S'Variable_Type'\n(I2\nttRp443\nsS'312'\np444\ng40\n(S'Variable_Type'\n(I2\nttRp445\nsS'311'\np446\ng40\n(S'Variable_Type'\n(I2\nttRp447\nsS'310'\np448\ng40\n(S'Variable_Type'\n(I2\nttRp449\nsS'317'\np450\ng40\n(S'Variable_Type'\n(I2\nttRp451\nsS'316'\np452\ng40\n(S'Variable_Type'\n(I2\nttRp453\nsS'315'\np454\ng40\n(S'Variable_Type'\n(I2\nttRp455\nsS'314'\np456\ng40\n(S'Variable_Type'\n(I2\nttRp457\nsS'270'\np458\ng40\n(S'Variable_Type'\n(I2\nttRp459\nsS'271'\np460\ng40\n(S'Variable_Type'\n(I2\nttRp461\nsS'272'\np462\ng40\n(S'Variable_Type'\n(I2\nttRp463\nsS'273'\np464\ng40\n(S'Variable_Type'\n(I2\nttRp465\nsS'274'\np466\ng40\n(S'Variable_Type'\n(I2\nttRp467\nsS'275'\np468\ng40\n(S'Variable_Type'\n(I2\nttRp469\nsS'276'\np470\ng40\n(S'Variable_Type'\n(I2\nttRp471\nsS'289'\np472\ng40\n(S'Variable_Type'\n(I2\nttRp473\nsS'345'\np474\ng40\n(S'Variable_Type'\n(I2\nttRp475\nsS'346'\np476\ng40\n(S'Variable_Type'\n(I2\nttRp477\nsS'347'\np478\ng40\n(S'Variable_Type'\n(I2\nttRp479\nsS'340'\np480\ng40\n(S'Variable_Type'\n(I2\nttRp481\nsS'341'\np482\ng40\n(S'Variable_Type'\n(I2\nttRp483\nsS'342'\np484\ng40\n(S'Variable_Type'\n(I2\nttRp485\nsS'343'\np486\ng40\n(S'Variable_Type'\n(I2\nttRp487\nsS'281'\np488\ng40\n(S'Variable_Type'\n(I2\nttRp489\nsS'280'\np490\ng40\n(S'Variable_Type'\n(I2\nttRp491\nsS'283'\np492\ng40\n(S'Variable_Type'\n(I2\nttRp493\nsS'282'\np494\ng40\n(S'Variable_Type'\n(I2\nttRp495\nsS'348'\np496\ng40\n(S'Variable_Type'\n(I2\nttRp497\nsS'349'\np498\ng40\n(S'Variable_Type'\n(I2\nttRp499\nsS'287'\np500\ng40\n(S'Variable_Type'\n(I2\nttRp501\nsS'286'\np502\ng40\n(S'Variable_Type'\n(I2\nttRp503\nsS'263'\np504\ng40\n(S'Variable_Type'\n(I2\nttRp505\nsS'262'\np506\ng40\n(S'Variable_Type'\n(I2\nttRp507\nsS'261'\np508\ng40\n(S'Variable_Type'\n(I2\nttRp509\nsS'260'\np510\ng40\n(S'Variable_Type'\n(I2\nttRp511\nsS'267'\np512\ng40\n(S'Variable_Type'\n(I2\nttRp513\nsS'266'\np514\ng40\n(S'Variable_Type'\n(I2\nttRp515\nsS'265'\np516\ng40\n(S'Variable_Type'\n(I2\nttRp517\nsS'264'\np518\ng40\n(S'Variable_Type'\n(I2\nttRp519\nsS'269'\np520\ng40\n(S'Variable_Type'\n(I2\nttRp521\nsS'268'\np522\ng40\n(S'Variable_Type'\n(I2\nttRp523\nsS'298'\np524\ng40\n(S'Variable_Type'\n(I2\nttRp525\nsS'299'\np526\ng40\n(S'Variable_Type'\n(I2\nttRp527\nsS'296'\np528\ng40\n(S'Variable_Type'\n(I2\nttRp529\nsS'297'\np530\ng40\n(S'Variable_Type'\n(I2\nttRp531\nsS'294'\np532\ng40\n(S'Variable_Type'\n(I2\nttRp533\nsS'295'\np534\ng40\n(S'Variable_Type'\n(I2\nttRp535\nsS'292'\np536\ng40\n(S'Variable_Type'\n(I2\nttRp537\nsS'293'\np538\ng40\n(S'Variable_Type'\n(I2\nttRp539\nsS'290'\np540\ng40\n(S'Variable_Type'\n(I2\nttRp541\nsS'291'\np542\ng40\n(S'Variable_Type'\n(I2\nttRp543\nssS'metas'\np544\n(dp545\nsS'values'\np546\n(dp547\nS'nCases'\np548\n(I5000\nI-2\ntp549\nsS'selPercentage'\np550\n(I50\nI-2\ntp551\nssS'time'\np552\nF1302791146.9282751\nsba(iOWContexts\nContext\np553\n(dp554\nS'values'\np555\n(dp556\nS'nCases'\np557\n(I100\nI-2\ntp558\nsS'selPercentage'\np559\n(I50\nI-2\ntp560\nssS'attributes'\np561\n(dp562\nS'5896'\np563\ng40\n(S'Variable_Type'\n(I2\nttRp564\nsS'5897'\np565\ng40\n(S'Variable_Type'\n(I2\nttRp566\nsS'5821'\np567\ng40\n(S'Variable_Type'\n(I2\nttRp568\nsS'5820'\np569\ng40\n(S'Variable_Type'\n(I2\nttRp570\nsS'5823'\np571\ng40\n(S'Variable_Type'\n(I2\nttRp572\nsS'5822'\np573\ng40\n(S'Variable_Type'\n(I2\nttRp574\nsS'5824'\np575\ng40\n(S'Variable_Type'\n(I2\nttRp576\nsS'6644'\np577\ng40\n(S'Variable_Type'\n(I2\nttRp578\nsS'6645'\np579\ng40\n(S'Variable_Type'\n(I2\nttRp580\nsS'6646'\np581\ng40\n(S'Variable_Type'\n(I2\nttRp582\nsS'6647'\np583\ng40\n(S'Variable_Type'\n(I2\nttRp584\nsS'6640'\np585\ng40\n(S'Variable_Type'\n(I2\nttRp586\nsS'6641'\np587\ng40\n(S'Variable_Type'\n(I2\nttRp588\nsS'6642'\np589\ng40\n(S'Variable_Type'\n(I2\nttRp590\nsS'6643'\np591\ng40\n(S'Variable_Type'\n(I2\nttRp592\nsS'5900'\np593\ng40\n(S'Variable_Type'\n(I2\nttRp594\nsS'5901'\np595\ng40\n(S'Variable_Type'\n(I2\nttRp596\nsS'5872'\np597\ng40\n(S'Variable_Type'\n(I2\nttRp598\nsS'5873'\np599\ng40\n(S'Variable_Type'\n(I2\nttRp600\nsS'5870'\np601\ng40\n(S'Variable_Type'\n(I2\nttRp602\nsS'5871'\np603\ng40\n(S'Variable_Type'\n(I2\nttRp604\nsS'5876'\np605\ng40\n(S'Variable_Type'\n(I2\nttRp606\nsS'5877'\np607\ng40\n(S'Variable_Type'\n(I2\nttRp608\nsS'5874'\np609\ng40\n(S'Variable_Type'\n(I2\nttRp610\nsS'5875'\np611\ng40\n(S'Variable_Type'\n(I2\nttRp612\nsS'5878'\np613\ng40\n(S'Variable_Type'\n(I2\nttRp614\nsS'5879'\np615\ng40\n(S'Variable_Type'\n(I2\nttRp616\nsS'5816'\np617\ng40\n(S'Variable_Type'\n(I2\nttRp618\nsS'5869'\np619\ng40\n(S'Variable_Type'\n(I2\nttRp620\nsS'5868'\np621\ng40\n(S'Variable_Type'\n(I2\nttRp622\nsS'5865'\np623\ng40\n(S'Variable_Type'\n(I2\nttRp624\nsS'5864'\np625\ng40\n(S'Variable_Type'\n(I2\nttRp626\nsS'5867'\np627\ng40\n(S'Variable_Type'\n(I2\nttRp628\nsS'5866'\np629\ng40\n(S'Variable_Type'\n(I2\nttRp630\nsS'5890'\np631\ng40\n(S'Variable_Type'\n(I2\nttRp632\nsS'5891'\np633\ng40\n(S'Variable_Type'\n(I2\nttRp634\nsS'5892'\np635\ng40\n(S'Variable_Type'\n(I2\nttRp636\nsS'5893'\np637\ng40\n(S'Variable_Type'\n(I2\nttRp638\nsS'5894'\np639\ng40\n(S'Variable_Type'\n(I2\nttRp640\nsS'5895'\np641\ng40\n(S'Variable_Type'\n(I2\nttRp642\nsS'6615'\np643\ng40\n(S'Variable_Type'\n(I2\nttRp644\nsS'6614'\np645\ng40\n(S'Variable_Type'\n(I2\nttRp646\nsS'5898'\np647\ng40\n(S'Variable_Type'\n(I2\nttRp648\nsS'5899'\np649\ng40\n(S'Variable_Type'\n(I2\nttRp650\nsS'6619'\np651\ng40\n(S'Variable_Type'\n(I2\nttRp652\nsS'6618'\np653\ng40\n(S'Variable_Type'\n(I2\nttRp654\nsS'5818'\np655\ng40\n(S'Variable_Type'\n(I2\nttRp656\nsS'5819'\np657\ng40\n(S'Variable_Type'\n(I2\nttRp658\nsS'5810'\np659\ng40\n(S'Variable_Type'\n(I2\nttRp660\nsS'5811'\np661\ng40\n(S'Variable_Type'\n(I2\nttRp662\nsS'5812'\np663\ng40\n(S'Variable_Type'\n(I2\nttRp664\nsS'5813'\np665\ng40\n(S'Variable_Type'\n(I2\nttRp666\nsS'5814'\np667\ng40\n(S'Variable_Type'\n(I2\nttRp668\nsS'5815'\np669\ng40\n(S'Variable_Type'\n(I2\nttRp670\nsS'5799'\np671\ng40\n(S'Variable_Type'\n(I2\nttRp672\nsS'5817'\np673\ng40\n(S'Variable_Type'\n(I2\nttRp674\nsS'6628'\np675\ng40\n(S'Variable_Type'\n(I2\nttRp676\nsS'5884'\np677\ng40\n(S'Variable_Type'\n(I2\nttRp678\nsS'5883'\np679\ng40\n(S'Variable_Type'\n(I2\nttRp680\nsS'5882'\np681\ng40\n(S'Variable_Type'\n(I2\nttRp682\nsS'5881'\np683\ng40\n(S'Variable_Type'\n(I2\nttRp684\nsS'5880'\np685\ng40\n(S'Variable_Type'\n(I2\nttRp686\nsS'5887'\np687\ng40\n(S'Variable_Type'\n(I2\nttRp688\nsS'5886'\np689\ng40\n(S'Variable_Type'\n(I2\nttRp690\nsS'5885'\np691\ng40\n(S'Variable_Type'\n(I2\nttRp692\nsS'6629'\np693\ng40\n(S'Variable_Type'\n(I2\nttRp694\nsS'6626'\np695\ng40\n(S'Variable_Type'\n(I2\nttRp696\nsS'6627'\np697\ng40\n(S'Variable_Type'\n(I2\nttRp698\nsS'5889'\np699\ng40\n(S'Variable_Type'\n(I2\nttRp700\nsS'6625'\np701\ng40\n(S'Variable_Type'\n(I2\nttRp702\nsS'6622'\np703\ng40\n(S'Variable_Type'\n(I2\nttRp704\nsS'6623'\np705\ng40\n(S'Variable_Type'\n(I2\nttRp706\nsS'6620'\np707\ng40\n(S'Variable_Type'\n(I2\nttRp708\nsS'6621'\np709\ng40\n(S'Variable_Type'\n(I2\nttRp710\nsS'5888'\np711\ng40\n(S'Variable_Type'\n(I2\nttRp712\nsS'5809'\np713\ng40\n(S'Variable_Type'\n(I2\nttRp714\nsS'5808'\np715\ng40\n(S'Variable_Type'\n(I2\nttRp716\nsS'5803'\np717\ng40\n(S'Variable_Type'\n(I2\nttRp718\nsS'5802'\np719\ng40\n(S'Variable_Type'\n(I2\nttRp720\nsS'5801'\np721\ng40\n(S'Variable_Type'\n(I2\nttRp722\nsS'5800'\np723\ng40\n(S'Variable_Type'\n(I2\nttRp724\nsS'5807'\np725\ng40\n(S'Variable_Type'\n(I2\nttRp726\nsS'5806'\np727\ng40\n(S'Variable_Type'\n(I2\nttRp728\nsS'5805'\np729\ng40\n(S'Variable_Type'\n(I2\nttRp730\nsS'5804'\np731\ng40\n(S'Variable_Type'\n(I2\nttRp732\nsS'6639'\np733\ng40\n(S'Variable_Type'\n(I2\nttRp734\nsS'6638'\np735\ng40\n(S'Variable_Type'\n(I2\nttRp736\nsS'6631'\np737\ng40\n(S'Variable_Type'\n(I2\nttRp738\nsS'6630'\np739\ng40\n(S'Variable_Type'\n(I2\nttRp740\nsS'6633'\np741\ng40\n(S'Variable_Type'\n(I2\nttRp742\nsS'6632'\np743\ng40\n(S'Variable_Type'\n(I2\nttRp744\nsS'6635'\np745\ng40\n(S'Variable_Type'\n(I2\nttRp746\nsS'6634'\np747\ng40\n(S'Variable_Type'\n(I2\nttRp748\nsS'6637'\np749\ng40\n(S'Variable_Type'\n(I2\nttRp750\nsS'6636'\np751\ng40\n(S'Variable_Type'\n(I2\nttRp752\nsS'6624'\np753\ng40\n(S'Variable_Type'\n(I2\nttRp754\nsS'6617'\np755\ng40\n(S'Variable_Type'\n(I2\nttRp756\nsS'6616'\np757\ng40\n(S'Variable_Type'\n(I2\nttRp758\nssS'metas'\np759\n(dp760\nsS'noCopy'\np761\n(lp762\nS'orderedDomain'\np763\nasS'time'\np764\nF1302179753.493912\nsba(iOWContexts\nContext\np765\n(dp766\nS'noCopy'\np767\n(lp768\nS'orderedDomain'\np769\nasS'attributes'\np770\n(dp771\nS'159'\np772\ng40\n(S'Variable_Type'\n(I2\nttRp773\nsS'154'\np774\ng40\n(S'Variable_Type'\n(I2\nttRp775\nsS'171'\np776\ng40\n(S'Variable_Type'\n(I2\nttRp777\nssS'metas'\np778\n(dp779\nsS'values'\np780\n(dp781\nS'nCases'\np782\n(I25\nI-2\ntp783\nsS'selPercentage'\np784\n(I50\nI-2\ntp785\nssS'time'\np786\nF1302092309.4257929\nsba(iOWContexts\nContext\np787\n(dp788\nS'values'\np789\n(dp790\nS'nCases'\np791\n(I25\nI-2\ntp792\nsS'selPercentage'\np793\n(I10\nI-2\ntp794\nssS'attributes'\np795\n(dp796\nS'GSM4905'\np797\ng40\n(S'Variable_Type'\n(I2\nttRp798\nsS'GSM4904'\np799\ng40\n(S'Variable_Type'\n(I2\nttRp800\nsS'GSM4907'\np801\ng40\n(S'Variable_Type'\n(I2\nttRp802\nsS'GSM4906'\np803\ng40\n(S'Variable_Type'\n(I2\nttRp804\nsS'GSM4901'\np805\ng40\n(S'Variable_Type'\n(I2\nttRp806\nsS'GSM4903'\np807\ng40\n(S'Variable_Type'\n(I2\nttRp808\nsS'GSM4902'\np809\ng40\n(S'Variable_Type'\n(I2\nttRp810\nsS'GSM4909'\np811\ng40\n(S'Variable_Type'\n(I2\nttRp812\nsS'GSM4908'\np813\ng40\n(S'Variable_Type'\n(I2\nttRp814\nsS'GSM4923'\np815\ng40\n(S'Variable_Type'\n(I2\nttRp816\nsS'GSM4922'\np817\ng40\n(S'Variable_Type'\n(I2\nttRp818\nsS'GSM4921'\np819\ng40\n(S'Variable_Type'\n(I2\nttRp820\nsS'GSM4920'\np821\ng40\n(S'Variable_Type'\n(I2\nttRp822\nsS'GSM4924'\np823\ng40\n(S'Variable_Type'\n(I2\nttRp824\nsS'GSM4912'\np825\ng40\n(S'Variable_Type'\n(I2\nttRp826\nsS'GSM4913'\np827\ng40\n(S'Variable_Type'\n(I2\nttRp828\nsS'GSM4910'\np829\ng40\n(S'Variable_Type'\n(I2\nttRp830\nsS'GSM4911'\np831\ng40\n(S'Variable_Type'\n(I2\nttRp832\nsS'GSM4916'\np833\ng40\n(S'Variable_Type'\n(I2\nttRp834\nsS'GSM4917'\np835\ng40\n(S'Variable_Type'\n(I2\nttRp836\nsS'GSM4914'\np837\ng40\n(S'Variable_Type'\n(I2\nttRp838\nsS'GSM4915'\np839\ng40\n(S'Variable_Type'\n(I2\nttRp840\nsS'GSM4918'\np841\ng40\n(S'Variable_Type'\n(I2\nttRp842\nsS'GSM4919'\np843\ng40\n(S'Variable_Type'\n(I2\nttRp844\nssS'metas'\np845\n(dp846\nsS'noCopy'\np847\n(lp848\nS'orderedDomain'\np849\nasS'time'\np850\nF1300886190.9261949\nsba(iOWContexts\nContext\np851\n(dp852\nS'noCopy'\np853\n(lp854\nS'orderedDomain'\np855\nasS'attributes'\np856\n(dp857\nS'norm_AX2_0s'\np858\ng40\n(S'Variable_Type'\n(I2\nttRp859\nssS'metas'\np860\n(dp861\nsS'values'\np862\n(dp863\nS'nCases'\np864\n(I25\nI-2\ntp865\nsS'selPercentage'\np866\n(I34\nI-2\ntp867\nssS'time'\np868\nF1300360461.834326\nsba(iOWContexts\nContext\np869\n(dp870\nS'values'\np871\n(dp872\nS'nCases'\np873\n(I25\nI-2\ntp874\nsS'selPercentage'\np875\n(I100\nI-2\ntp876\nssS'attributes'\np877\n(dp878\nS'astigmatic'\np879\ng40\n(S'Variable_Type'\n(I1\nttRp880\nsS'tear_rate'\np881\ng40\n(S'Variable_Type'\n(I1\nttRp882\nsS'age'\np883\ng40\n(S'Variable_Type'\n(I1\nttRp884\nsS'prescription'\np885\ng40\n(S'Variable_Type'\n(I1\nttRp886\nsS'lenses'\np887\ng40\n(S'Variable_Type'\n(I1\nttRp888\nssS'metas'\np889\n(dp890\nsS'noCopy'\np891\n(lp892\nS'orderedDomain'\np893\nasS'time'\np894\nF1299669302.329607\nsba(iOWContexts\nContext\np895\n(dp896\ng871\n(dp897\ng873\n(I25\nI-2\ntp898\nsg875\n(I100\nI-2\ntp899\nssg877\n(dp900\nS'astigmatic'\np901\ng40\n(S'Variable_Type'\n(I1\nttRp902\nsS'tear_rate'\np903\ng40\n(S'Variable_Type'\n(I1\nttRp904\nsS'age'\np905\ng40\n(S'Variable_Type'\n(I1\nttRp906\nsS'prescription'\np907\ng40\n(S'Variable_Type'\n(I1\nttRp908\nsS'lenses'\np909\ng40\n(S'Variable_Type'\n(I1\nttRp910\nssg889\n(dp911\nsg891\n(lp912\ng893\nasg894\nF1299669302.320215\nsbasS'nCases'\np913\nI500\nsS'Folds'\np914\nI2\nsS'UseSpecificSeed'\np915\nI01\nsS'GroupText'\np916\nS'0.1,0.25,0.5'\np917\nsS'CVFoldsInternal'\np918\nI2\ns."
p5
sS'Data Table'
p6
S"(dp1\nS'autoCommit'\np2\nI00\nsS'widgetYPosition'\np3\nI27\nsS'showMeta'\np4\nI01\nsS'distColorRgb'\np5\n(I220\nI220\nI220\nI255\ntp6\nsS'widgetHeight'\np7\nI857\nsS'widgetXPosition'\np8\nI365\nsS'showAttributeLabels'\np9\nI01\nsS'showDistributions'\np10\nI1\nsS'widgetShown'\np11\nI0\nsS'savedWidgetGeometry'\np12\nS'\\x01\\xd9\\xd0\\xcb\\x00\\x01\\x00\\x00\\x00\\x00\\x01m\\x00\\x00\\x00\\x1b\\x00\\x00\\x07\\x02\\x00\\x00\\x03\\x89\\x00\\x00\\x01m\\x00\\x00\\x001\\x00\\x00\\x07\\x02\\x00\\x00\\x03\\x89\\x00\\x00\\x00\\x00\\x00\\x00'\np13\nsS'widgetWidth'\np14\nI1430\ns."
p7
sS'File'
p8
S"(dp1\nS'widgetHeight'\np2\nI526\nsS'widgetXPosition'\np3\nI152\nsS'widgetYPosition'\np4\nI207\nsS'savedWidgetGeometry'\np5\nS'\\x01\\xd9\\xd0\\xcb\\x00\\x01\\x00\\x00\\x00\\x00\\x00\\x98\\x00\\x00\\x00\\xcf\\x00\\x00\\x02\\x91\\x00\\x00\\x02\\xf2\\x00\\x00\\x00\\x98\\x00\\x00\\x00\\xe5\\x00\\x00\\x02\\x91\\x00\\x00\\x02\\xf2\\x00\\x00\\x00\\x00\\x00\\x00'\np6\nsS'widgetShown'\np7\nI0\nsS'showAdvanced'\np8\nI01\nsS'createNewOn'\np9\nI1\nsS'widgetWidth'\np10\nI506\nsS'localContextsVersion'\np11\n(I100\nI0\ntp12\nsS'localContexts'\np13\n(lp14\n(iOWContexts\nContext\np15\n(dp16\nS'symbolDK'\np17\nS''\nsS'symbolDC'\np18\nS''\nsS'time'\np19\nF1307092009.6720049\nsS'filename'\np20\nS'/Users/aleserjavec/Documents/workspace/orange/doc/datasets/brown-selected.tab'\np21\nsba(iOWContexts\nContext\np22\n(dp23\nS'symbolDC'\np24\nS''\nsS'symbolDK'\np25\nS''\nsS'filename'\np26\nS'/Users/aleserjavec/Documents/GDS636.tab'\np27\nsS'time'\np28\nF1307022400.764786\nsba(iOWContexts\nContext\np29\n(dp30\nS'symbolDC'\np31\nS''\nsS'symbolDK'\np32\nS''\nsS'filename'\np33\nS'/Users/aleserjavec/Documents/workspace/orange/doc/datasets/breast-cancer.tab'\np34\nsS'time'\np35\nF1307016031.8662\nsba(iOWContexts\nContext\np36\n(dp37\ng32\nS''\nsg31\nS''\nsg35\nF1307010758.0852289\nsg33\nS'/Users/aleserjavec/Documents/workspace/orange/doc/datasets/brown-selected.tab'\np38\nsba(iOWContexts\nContext\np39\n(dp40\nS'symbolDC'\np41\nS''\nsS'symbolDK'\np42\nS''\nsS'filename'\np43\nS'/Users/aleserjavec/Downloads/pex11_orng_sample/pex11_sample.tab'\np44\nsS'time'\np45\nF1307009464.2678699\nsba(iOWContexts\nContext\np46\n(dp47\nS'symbolDC'\np48\nS''\nsS'symbolDK'\np49\nS''\nsS'filename'\np50\nS'/Users/aleserjavec/Downloads/pex11_orng_sample/pex11_sample.tab'\np51\nsS'time'\np52\nF1307009464.2678699\nsba(iOWContexts\nContext\np53\n(dp54\ng41\nS''\nsg42\nS''\nsg43\nS'/Users/aleserjavec/Desktop/images.tab'\np55\nsg45\nF1306844009.809381\nsba(iOWContexts\nContext\np56\n(dp57\ng48\nS''\nsg49\nS''\nsg50\nS'/Users/aleserjavec/Desktop/images.tab'\np58\nsg52\nF1306844009.809381\nsba(iOWContexts\nContext\np59\n(dp60\nS'symbolDK'\np61\nS''\nsS'symbolDC'\np62\nS''\nsS'time'\np63\nF1306843992.781311\nsS'filename'\np64\nS'/Users/aleserjavec/Documents/workspace/testing/widgetDebugging/datasets/constant_class___values_defined.tab'\np65\nsba(iOWContexts\nContext\np66\n(dp67\nS'symbolDK'\np68\nS''\nsS'symbolDC'\np69\nS''\nsS'time'\np70\nF1306843992.781311\nsS'filename'\np71\nS'/Users/aleserjavec/Documents/workspace/testing/widgetDebugging/datasets/constant_class___values_defined.tab'\np72\nsba(iOWContexts\nContext\np73\n(dp74\ng61\nS''\nsg62\nS''\nsg63\nF1306753829.935055\nsg64\nS'/Users/aleserjavec/Documents/AirPortExtremeRSA.txt'\np75\nsba(iOWContexts\nContext\np76\n(dp77\ng68\nS''\nsg69\nS''\nsg70\nF1306753829.935055\nsg71\nS'/Users/aleserjavec/Documents/AirPortExtremeRSA.txt'\np78\nsba(iOWContexts\nContext\np79\n(dp80\ng18\nS''\nsg17\nS''\nsg20\ng34\nsg19\nF1306753807.081223\nsba(iOWContexts\nContext\np81\n(dp82\nS'symbolDK'\np83\nS''\nsS'symbolDC'\np84\nS''\nsS'time'\np85\nF1306753799.772351\nsS'filename'\np86\nS'/Users/aleserjavec/Documents/workspace/orange/doc/datasets/adult_sample.tab'\np87\nsba(iOWContexts\nContext\np88\n(dp89\nS'symbolDK'\np90\nS''\nsS'symbolDC'\np91\nS''\nsS'time'\np92\nF1306753799.772351\nsS'filename'\np93\nS'/Users/aleserjavec/Documents/workspace/orange/doc/datasets/adult_sample.tab'\np94\nsba(iOWContexts\nContext\np95\n(dp96\nS'symbolDC'\np97\nS''\nsS'symbolDK'\np98\nS''\nsS'filename'\np99\nS'/Users/aleserjavec/Documents/time.tab'\np100\nsS'time'\np101\nF1306750210.6325769\nsba(iOWContexts\nContext\np102\n(dp103\nS'symbolDC'\np104\nS''\nsS'symbolDK'\np105\nS''\nsS'filename'\np106\nS'/Users/aleserjavec/Documents/time.tab'\np107\nsS'time'\np108\nF1306750210.6325769\nsba(iOWContexts\nContext\np109\n(dp110\ng31\nS''\nsg32\nS''\nsg33\nS'/Users/aleserjavec/Documents/workspace/orange/doc/datasets/monks-1.tab'\np111\nsg35\nF1306744605.7715769\nsba(iOWContexts\nContext\np112\n(dp113\ng18\nS''\nsg17\nS''\nsg20\nS'/Users/aleserjavec/Documents/workspace/orange/doc/datasets/monks-1.tab'\np114\nsg19\nF1306744605.7715769\nsba(iOWContexts\nContext\np115\n(dp116\ng32\nS''\nsg31\nS''\nsg35\nF1306488837.7845941\nsg33\nS'/Users/aleserjavec/Documents/workspace/orange/doc/datasets/iris.tab'\np117\nsba(iOWContexts\nContext\np118\n(dp119\ng17\nS''\nsg18\nS''\nsg19\nF1306488837.7845941\nsg20\nS'/Users/aleserjavec/Documents/workspace/orange/doc/datasets/iris.tab'\np120\nsba(iOWContexts\nContext\np121\n(dp122\ng31\nS''\nsg32\nS''\nsg33\nS'/Users/aleserjavec/Downloads/tmp.tab'\np123\nsg35\nF1306404605.0500319\nsba(iOWContexts\nContext\np124\n(dp125\ng18\nS''\nsg17\nS''\nsg20\nS'/Users/aleserjavec/Downloads/tmp.tab'\np126\nsg19\nF1306404605.0500319\nsba(iOWContexts\nContext\np127\n(dp128\ng31\nS''\nsg32\nS''\nsg33\nS'/Users/aleserjavec/Documents/abc-subset.tab'\np129\nsg35\nF1306246636.5529239\nsba(iOWContexts\nContext\np130\n(dp131\ng18\nS''\nsg17\nS''\nsg20\nS'/Users/aleserjavec/Documents/abc-subset.tab'\np132\nsg19\nF1306246636.5529239\nsba(iOWContexts\nContext\np133\n(dp134\ng31\nS''\nsg32\nS''\nsg33\nS'/Users/aleserjavec/Documents/dicty-abc-sample.tab'\np135\nsg35\nF1305899821.908432\nsba(iOWContexts\nContext\np136\n(dp137\ng18\nS''\nsg17\nS''\nsg20\nS'/Users/aleserjavec/Documents/dicty-abc-sample.tab'\np138\nsg19\nF1305899821.908432\nsba(iOWContexts\nContext\np139\n(dp140\ng32\nS''\nsg31\nS''\nsg35\nF1305899783.1094699\nsg33\ng38\nsba(iOWContexts\nContext\np141\n(dp142\ng17\nS''\nsg18\nS''\nsg19\nF1305899783.1094699\nsg20\ng21\nsba(iOWContexts\nContext\np143\n(dp144\ng31\nS''\nsg32\nS''\nsg33\nS'/Users/aleserjavec/Documents/abc-subset.tab'\np145\nsg35\nF1305886374.9336219\nsba(iOWContexts\nContext\np146\n(dp147\ng18\nS''\nsg17\nS''\nsg20\nS'/Users/aleserjavec/Documents/abc-subset.tab'\np148\nsg19\nF1305886374.9336219\nsba(iOWContexts\nContext\np149\n(dp150\ng32\nS''\nsg31\nS''\nsg35\nF1305886045.0686941\nsg33\nS'/Users/aleserjavec/Documents/workspace/orange/doc/datasets/iris.tab'\np151\nsba(iOWContexts\nContext\np152\n(dp153\ng17\nS''\nsg18\nS''\nsg19\nF1305886045.0686941\nsg20\nS'/Users/aleserjavec/Documents/workspace/orange/doc/datasets/iris.tab'\np154\nsba(iOWContexts\nContext\np155\n(dp156\ng31\nS''\nsg32\nS''\nsg33\nS'/Users/aleserjavec/Documents/dicty-abc-sample.tab'\np157\nsg35\nF1305822333.632704\nsba(iOWContexts\nContext\np158\n(dp159\ng18\nS''\nsg17\nS''\nsg20\nS'/Users/aleserjavec/Documents/dicty-abc-sample.tab'\np160\nsg19\nF1305822333.632704\nsba(iOWContexts\nContext\np161\n(dp162\ng32\nS''\nsg31\nS''\nsg35\nF1305822324.9244339\nsg33\nS'/Users/aleserjavec/Documents/dicty-abc-sample.tab'\np163\nsba(iOWContexts\nContext\np164\n(dp165\ng32\nS''\nsg31\nS''\nsg35\nF1305822324.9244339\nsg33\nS'/Users/aleserjavec/Documents/dicty-abc-sample.tab'\np166\nsba(iOWContexts\nContext\np167\n(dp168\ng17\nS''\nsg18\nS''\nsg19\nF1305822324.9244339\nsg20\nS'/Users/aleserjavec/Documents/dicty-abc-sample.tab'\np169\nsba(iOWContexts\nContext\np170\n(dp171\ng17\nS''\nsg18\nS''\nsg19\nF1305822324.9244339\nsg20\nS'/Users/aleserjavec/Documents/dicty-abc-sample.tab'\np172\nsba(iOWContexts\nContext\np173\n(dp174\ng32\nS''\nsg31\nS''\nsg35\nF1305817269.2841351\nsg33\nS'/Users/aleserjavec/Documents/abc-subset.tab'\np175\nsba(iOWContexts\nContext\np176\n(dp177\ng32\nS''\nsg31\nS''\nsg35\nF1305817269.2841351\nsg33\nS'/Users/aleserjavec/Documents/abc-subset.tab'\np178\nsba(iOWContexts\nContext\np179\n(dp180\ng17\nS''\nsg18\nS''\nsg19\nF1305817269.2841351\nsg20\nS'/Users/aleserjavec/Documents/abc-subset.tab'\np181\nsba(iOWContexts\nContext\np182\n(dp183\ng17\nS''\nsg18\nS''\nsg19\nF1305817269.2841351\nsg20\nS'/Users/aleserjavec/Documents/abc-subset.tab'\np184\nsba(iOWContexts\nContext\np185\n(dp186\ng31\nS''\nsg32\nS''\nsg33\ng38\nsg35\nF1305811756.742806\nsba(iOWContexts\nContext\np187\n(dp188\ng31\nS''\nsg32\nS''\nsg33\nS'/Users/aleserjavec/Documents/workspace/orange/doc/datasets/brown-selected.tab'\np189\nsg35\nF1305811756.742806\nsba(iOWContexts\nContext\np190\n(dp191\ng18\nS''\nsg17\nS''\nsg20\ng21\nsg19\nF1305811756.742806\nsba(iOWContexts\nContext\np192\n(dp193\ng18\nS''\nsg17\nS''\nsg20\nS'/Users/aleserjavec/Documents/workspace/orange/doc/datasets/brown-selected.tab'\np194\nsg19\nF1305811756.742806\nsba(iOWContexts\nContext\np195\n(dp196\ng31\nS''\nsg32\nS''\nsg33\ng117\nsg35\nF1305806074.4491899\nsba(iOWContexts\nContext\np197\n(dp198\ng31\nS''\nsg32\nS''\nsg33\ng151\nsg35\nF1305806074.4491899\nsba(iOWContexts\nContext\np199\n(dp200\ng18\nS''\nsg17\nS''\nsg20\ng120\nsg19\nF1305806074.4491899\nsbasS'recentFiles'\np201\n(lp202\ng21\nag27\nag34\nag51\nag58\nag72\nag78\nag94\nag107\nag114\nag120\nag126\nag132\nag160\naS'/Users/aleserjavec/Documents/dicty-express.tab'\np203\naS'/Users/aleserjavec/Documents/workspace/orange/doc/datasets/titanic.tab'\np204\naS'/Users/aleserjavec/Documents/workspace/orange/doc/datasets/auto-mpg.tab'\np205\naS'/Users/aleserjavec/Documents/workspace/orange/doc/datasets/wine.tab'\np206\naS'/Users/aleserjavec/Documents/workspace/orange/doc/datasets/housing.tab'\np207\naS'/Users/aleserjavec/Library/Caches/orange/bigfiles/PPI/BIOGRID-ALL.tab'\np208\naS'/Users/aleserjavec/Desktop/dicty.tab'\np209\naS'/Users/aleserjavec/Documents/E-TABM-1087.tab'\np210\naS'/Users/aleserjavec/Documents/E-MTAB-487.tab'\np211\naS'/Users/aleserjavec/Downloads/MAGE-TABv1.1/e-mexp-428sdrf_v1.1.txt'\np212\nas."
p9
sS'Gene Selection'
p10
S"(dp1\nS'dataLabelIndex'\np2\nI0\nsS'autoCommit'\np3\nI00\nsS'methodIndex'\np4\nI0\nsS'widgetHeight'\np5\nI780\nsS'widgetXPosition'\np6\nI480\nsS'widgetYPosition'\np7\nI360\nsS'permutationsCount'\np8\nI10\nsS'selectPValue'\np9\nF0.01\nsS'widgetShown'\np10\nI0\nsS'savedWidgetGeometry'\np11\nS'\\x01\\xd9\\xd0\\xcb\\x00\\x01\\x00\\x00\\x00\\x00\\x01\\xe0\\x00\\x00\\x01h\\x00\\x00\\x04\\xff\\x00\\x00\\x04\\x89\\x00\\x00\\x01\\xe0\\x00\\x00\\x01~\\x00\\x00\\x04\\xff\\x00\\x00\\x04\\x89\\x00\\x00\\x00\\x00\\x00\\x00'\np12\nsS'widgetWidth'\np13\nI800\nsS'computeNullDistribution'\np14\nI00\ns."
p11
s.