(dp1
S'Example Distance'
p2
S"(dp1\nS'widgetShown'\np2\nI0\nsS'widgetHeight'\np3\nI174\nsS'widgetXPosition'\np4\nI66\nsS'widgetYPosition'\np5\nI87\nsS'Metrics'\np6\nI0\nsS'widgetWidth'\np7\nI208\nsS'localContextsVersion'\np8\n(I100\nI0\ntp9\nsS'localContexts'\np10\n(lp11\ns."
p3
sS'File'
p4
S"(dp1\nS'widgetHeight'\np2\nI511\nsS'widgetXPosition'\np3\nI723\nsS'widgetYPosition'\np4\nI216\nsS'widgetShown'\np5\nI0\nsS'showAdvanced'\np6\nI01\nsS'createNewOn'\np7\nI3\nsS'widgetWidth'\np8\nI614\nsS'localContextsVersion'\np9\n(I100\nI0\ntp10\nsS'localContexts'\np11\n(lp12\n(iOWContexts\nContext\np13\n(dp14\nS'symbolDC'\np15\nS''\nsS'symbolDK'\np16\nS''\nsS'filename'\np17\nS'/Users/aleserjavec/Documents/workspace/widgetDebugging/datasets/always_unknown_class.tab'\np18\nsS'time'\np19\nF1274948361.3718309\nsba(iOWContexts\nContext\np20\n(dp21\nS'symbolDC'\np22\nS''\nsS'symbolDK'\np23\nS''\nsS'filename'\np24\nS'/Users/aleserjavec/Documents/workspace/widgetDebugging/datasets/cont_attribute___always_unknown_class___continuous.tab'\np25\nsS'time'\np26\nF1273761808.4910359\nsba(iOWContexts\nContext\np27\n(dp28\nS'symbolDK'\np29\nS''\nsS'symbolDC'\np30\nS''\nsS'time'\np31\nF1273763872.2556391\nsS'filename'\np32\nS'/Users/aleserjavec/Documents/workspace/orange/doc/datasets/iris.tab'\np33\nsba(iOWContexts\nContext\np34\n(dp35\nS'symbolDC'\np36\nS''\nsS'symbolDK'\np37\nS''\nsS'filename'\np38\nS'/Users/aleserjavec/Documents/workspace/orange/doc/datasets/brown-selected.tab'\np39\nsS'time'\np40\nF1273483403.8679171\nsba(iOWContexts\nContext\np41\n(dp42\nS'symbolDK'\np43\nS''\nsS'symbolDC'\np44\nS''\nsS'time'\np45\nF1273842711.154882\nsS'filename'\np46\nS'/Users/aleserjavec/Documents/workspace/widgetDebugging/datasets/breastcancer2004.tab'\np47\nsba(iOWContexts\nContext\np48\n(dp49\nS'symbolDK'\np50\nS''\nsS'symbolDC'\np51\nS''\nsS'time'\np52\nF1274786693.0193379\nsS'filename'\np53\nS'/Users/aleserjavec/Documents/cont.tab'\np54\nsba(iOWContexts\nContext\np55\n(dp56\nS'symbolDC'\np57\nS''\nsS'symbolDK'\np58\nS''\nsS'filename'\np59\nS'/Users/aleserjavec/Documents/workspace/orange/doc/datasets/lenses.tab'\np60\nsS'time'\np61\nF1273759344.255486\nsba(iOWContexts\nContext\np62\n(dp63\nS'symbolDC'\np64\nS''\nsS'symbolDK'\np65\nS''\nsS'filename'\np66\nS''\nsS'time'\np67\nF1274786555.1249101\nsba(iOWContexts\nContext\np68\n(dp69\nS'symbolDC'\np70\nS''\nsS'symbolDK'\np71\nS''\nsS'filename'\np72\nS'/Users/aleserjavec/Documents/workspace/widgetDebugging/datasets/always_unknown_attribute___values_defined.tab'\np73\nsS'time'\np74\nF1274365369.3379459\nsba(iOWContexts\nContext\np75\n(dp76\nS'symbolDK'\np77\nS''\nsS'symbolDC'\np78\nS''\nsS'time'\np79\nF1273836059.7632401\nsS'filename'\np80\nS'/Users/aleserjavec/Documents/workspace/widgetDebugging/datasets/always_unknown_attribute.tab'\np81\nsba(iOWContexts\nContext\np82\n(dp83\nS'symbolDK'\np84\nS''\nsS'symbolDC'\np85\nS''\nsS'time'\np86\nF1273831984.923425\nsS'filename'\np87\nS'/Users/aleserjavec/Documents/workspace/widgetDebugging/datasets/always_unknown_attribute___continuous.tab'\np88\nsba(iOWContexts\nContext\np89\n(dp90\nS'symbolDK'\np91\nS''\nsS'symbolDC'\np92\nS''\nsS'time'\np93\nF1274364467.7309\nsS'filename'\np94\nS''\nsba(iOWContexts\nContext\np95\n(dp96\nS'symbolDC'\np97\nS''\nsS'symbolDK'\np98\nS''\nsS'filename'\np99\nS''\nsS'time'\np100\nF1274363029.8630769\nsba(iOWContexts\nContext\np101\n(dp102\ng97\nS''\nsg98\nS''\nsg99\nS''\nsg100\nF1274363002.971807\nsba(iOWContexts\nContext\np103\n(dp104\nS'symbolDK'\np105\nS''\nsS'symbolDC'\np106\nS''\nsS'time'\np107\nF1274095739.5626481\nsS'filename'\np108\nS'/Users/aleserjavec/Documents/workspace/widgetDebugging/datasets/always_unknown_attribute___continuous-noclass.tab'\np109\nsba(iOWContexts\nContext\np110\n(dp111\nS'symbolDC'\np112\nS''\nsS'symbolDK'\np113\nS''\nsS'filename'\np114\nS'/Users/aleserjavec/Documents/workspace/orange/doc/datasets/voting.tab'\np115\nsS'time'\np116\nF1274353980.862107\nsba(iOWContexts\nContext\np117\n(dp118\nS'symbolDK'\np119\nS''\nsS'symbolDC'\np120\nS''\nsS'time'\np121\nF1274196335.577399\nsS'filename'\np122\nS'/Users/aleserjavec/Documents/workspace/widgetDebugging/datasets/constant_class___continuous.tab'\np123\nsba(iOWContexts\nContext\np124\n(dp125\nS'symbolDK'\np126\nS''\nsS'symbolDC'\np127\nS''\nsS'time'\np128\nF1274103248.737484\nsS'filename'\np129\nS'/Users/aleserjavec/Documents/workspace/widgetDebugging/datasets/constant_attribute___continuous.tab'\np130\nsba(iOWContexts\nContext\np131\n(dp132\ng105\nS''\nsg106\nS''\nsg107\nF1274095643.0451469\nsg108\nS'/Users/aleserjavec/Documents/workspace/widgetDebugging/datasets/always_unknown_attribute-noclass.tab'\np133\nsba(iOWContexts\nContext\np134\n(dp135\nS'symbolDK'\np136\nS''\nsS'symbolDC'\np137\nS''\nsS'time'\np138\nF1274098894.4688139\nsS'filename'\np139\nS'/Users/aleserjavec/Documents/workspace/widgetDebugging/datasets/constant_attribute-noclass.tab'\np140\nsba(iOWContexts\nContext\np141\n(dp142\nS'symbolDK'\np143\nS''\nsS'symbolDC'\np144\nS''\nsS'time'\np145\nF1273838506.632822\nsS'filename'\np146\nS'/Users/aleserjavec/Documents/workspace/widgetDebugging/datasets/constant_class.tab'\np147\nsba(iOWContexts\nContext\np148\n(dp149\nS'symbolDC'\np150\nS''\nsS'symbolDK'\np151\nS''\nsS'filename'\np152\nS'/Users/aleserjavec/Documents/workspace/widgetDebugging/datasets/constant_class___values_defined.tab'\np153\nsS'time'\np154\nF1273840518.6345339\nsba(iOWContexts\nContext\np155\n(dp156\nS'symbolDK'\np157\nS''\nsS'symbolDC'\np158\nS''\nsS'time'\np159\nF1273755093.9877031\nsS'filename'\np160\nS'/Users/aleserjavec/Documents/workspace/widgetDebugging/datasets/two_valued_attribute___continuous.tab'\np161\nsba(iOWContexts\nContext\np162\n(dp163\ng157\nS''\nsg158\nS''\nsg159\nF1273755036.0459321\nsg160\nS''\nsba(iOWContexts\nContext\np164\n(dp165\nS'symbolDK'\np166\nS''\nsS'symbolDC'\np167\nS''\nsS'time'\np168\nF1196689968.171\nsS'filename'\np169\nS'E:/Development/Orange Datasets/UCI/zoo.tab'\np170\nsba(iOWContexts\nContext\np171\n(dp172\nS'symbolDC'\np173\nS''\nsS'symbolDK'\np174\nS''\nsS'filename'\np175\nS'E:/Development/Orange Datasets/Blaz/05-cur-w-calc.tab'\np176\nsS'time'\np177\nF1196689758.171\nsbasS'recentFiles'\np178\n(lp179\ng18\nag25\nag33\naS'/Users/aleserjavec/Documents/workspace/orange/doc/datasets/brown-selected.tab'\np180\naS'/Users/aleserjavec/Documents/workspace/widgetDebugging/datasets/breastcancer2004.tab'\np181\naS'/Users/aleserjavec/Documents/workspace/orange/doc/datasets/lenses.tab'\np182\naS'/Users/aleserjavec/Documents/workspace/widgetDebugging/datasets/always_unknown_attribute___values_defined.tab'\np183\naS'/Users/aleserjavec/Documents/workspace/widgetDebugging/datasets/always_unknown_attribute.tab'\np184\naS'/Users/aleserjavec/Documents/workspace/widgetDebugging/datasets/always_unknown_attribute___continuous.tab'\np185\naS'/Users/aleserjavec/Documents/workspace/widgetDebugging/datasets/wine-noclass.tab'\np186\naS'/Users/aleserjavec/Documents/workspace/widgetDebugging/datasets/always_unknown_attribute___continuous-noclass.tab'\np187\naS'/Users/aleserjavec/Documents/workspace/orange/doc/datasets/voting.tab'\np188\naS'/Users/aleserjavec/Documents/workspace/widgetDebugging/datasets/constant_class___continuous.tab'\np189\naS'/Users/aleserjavec/Documents/workspace/widgetDebugging/datasets/constant_attribute___continuous.tab'\np190\naS'/Users/aleserjavec/Documents/workspace/widgetDebugging/datasets/always_unknown_attribute-noclass.tab'\np191\naS'/Users/aleserjavec/Documents/workspace/widgetDebugging/datasets/constant_attribute-noclass.tab'\np192\naS'/Users/aleserjavec/Documents/workspace/widgetDebugging/datasets/constant_class.tab'\np193\naS'/Users/aleserjavec/Documents/workspace/widgetDebugging/datasets/constant_class___values_defined.tab'\np194\naS'/Users/aleserjavec/Documents/workspace/widgetDebugging/datasets/two_valued_attribute___continuous.tab'\np195\nas."
p5
sS'Attribute Distance'
p6
S"(dp1\nS'classInteractions'\np2\nI3\nsS'widgetHeight'\np3\nI258\nsS'widgetXPosition'\np4\nI154\nsS'widgetYPosition'\np5\nI203\nsS'widgetShown'\np6\nI0\nsS'widgetWidth'\np7\nI397\ns."
p7
sS'Network from Distances'
p8
S"(dp1\nS'kNN'\np2\nI0\nsS'andor'\np3\nI0\nsS'widgetHeight'\np4\nI608\nsS'widgetXPosition'\np5\nI0\nsS'widgetYPosition'\np6\nI22\nsS'spinUpperThreshold'\np7\nF0.5\nsS'widgetShown'\np8\nI0\nsS'spinLowerThreshold'\np9\nF0.5\nsS'widgetWidth'\np10\nI789\nsS'dstWeight'\np11\nI0\nsS'netOption'\np12\nI0\nsS'excludeLimit'\np13\nI1\ns."
p9
sS'Net Explorer (2)'
p10
S"(dp1\nS'lastTooltipColumns'\np2\nc__builtin__\nset\np3\n((ltRp4\nsS'autoSendSelection'\np5\nI00\nsS'labelsOnMarkedOnly'\np6\nI0\nsS'mdsSteps'\np7\nI120\nsS'lastColorColumn'\np8\ncsip\n_unpickle_type\np9\n(S'PyQt4.QtCore'\np10\nS'QString'\n(V(same color)\np11\nttRp12\nsS'widgetXPosition'\np13\nI0\nsS'widgetYPosition'\np14\nI22\nsS'spinExplicit'\np15\nNsS'showEdgeLabels'\np16\nI0\nsS'invertSize'\np17\nI01\nsS'showIndexes'\np18\nI0\nsS'mdsTorgerson'\np19\nI0\nsS'selectedSchemaIndex'\np20\nI0\nsS'mdsStressDelta'\np21\nF1.0000000000000001e-05\nsS'mdsRefresh'\np22\nI30\nsS'lastNameComponentAttribute'\np23\nS''\nsS'widgetHeight'\np24\nI748\nsS'selectedEdgeSchemaIndex'\np25\nI0\nsS'renderAntialiased'\np26\nI1\nsS'colorSettings'\np27\nNsS'fontSize'\np28\nI12\nsS'maxLinkSize'\np29\nI3\nsS'edgeColorSettings'\np30\n(lp31\n(S'net_edges'\n(lp32\n(lp33\na(lp34\n(S'contPalette'\np35\n(L4294967295L\nL4278190080L\nI0\nttp36\naa(lp37\n(S'discPalette'\np38\n(lp39\n(I204\nI204\nI204\ntp40\na(I179\nI226\nI205\ntp41\na(I253\nI205\nI172\ntp42\na(I203\nI213\nI232\ntp43\na(I244\nI202\nI228\ntp44\na(I230\nI245\nI201\ntp45\na(I255\nI242\nI174\ntp46\na(I241\nI226\nI204\ntp47\natp48\naatp49\na(S'Default'\n(lp50\n(lp51\na(lp52\n(g35\n(L4294967295L\nL4278190080L\nI0\nttp53\naa(lp54\n(g38\n(lp55\n(I0\nI0\nI255\ntp56\na(I255\nI0\nI0\ntp57\na(I0\nI255\nI0\ntp58\na(I255\nI128\nI0\ntp59\na(I255\nI255\nI0\ntp60\na(I255\nI0\nI255\ntp61\na(I0\nI255\nI255\ntp62\na(I128\nI0\nI255\ntp63\na(I0\nI128\nI255\ntp64\na(I255\nI223\nI128\ntp65\na(I127\nI111\nI64\ntp66\na(I92\nI46\nI0\ntp67\na(I0\nI84\nI0\ntp68\na(I192\nI192\nI0\ntp69\na(I0\nI127\nI127\ntp70\na(I128\nI0\nI0\ntp71\na(I127\nI0\nI127\ntp72\natp73\naatp74\nasS'mdsAvgLinkage'\np75\nI0\nsS'optMethod'\np76\nI2\nsS'widgetShown'\np77\nI0\nsS'spinPercentage'\np78\nNsS'maxVertexSize'\np79\nI10\nsS'toolbarSelection'\np80\nI0\nsS'showWeights'\np81\nI0\nsS'showTextMiningInfo'\np82\nI00\nsS'widgetWidth'\np83\nI1000\nsS'lastLabelColumns'\np84\ng3\n((ltRp85\nsS'showMissingValues'\np86\nI0\nsS'lastVertexSizeColumn'\np87\ng9\n(g10\nS'QString'\n(V(same size)\np88\nttRp89\nsS'organism'\np90\nS'goa_human'\np91\ns."
p11
sS'Net Explorer'
p12
S"(dp1\nS'lastTooltipColumns'\np2\nc__builtin__\nset\np3\n((ltRp4\nsS'autoSendSelection'\np5\nI00\nsS'labelsOnMarkedOnly'\np6\nI0\nsS'mdsSteps'\np7\nI120\nsS'lastColorColumn'\np8\ncsip\n_unpickle_type\np9\n(S'PyQt4.QtCore'\np10\nS'QString'\n(V(same color)\np11\nttRp12\nsS'widgetXPosition'\np13\nI0\nsS'widgetYPosition'\np14\nI22\nsS'spinExplicit'\np15\nNsS'showEdgeLabels'\np16\nI0\nsS'invertSize'\np17\nI01\nsS'showIndexes'\np18\nI0\nsS'mdsTorgerson'\np19\nI0\nsS'selectedSchemaIndex'\np20\nI0\nsS'mdsStressDelta'\np21\nF1.0000000000000001e-05\nsS'mdsRefresh'\np22\nI30\nsS'lastNameComponentAttribute'\np23\nS''\nsS'widgetHeight'\np24\nI775\nsS'selectedEdgeSchemaIndex'\np25\nI0\nsS'renderAntialiased'\np26\nI1\nsS'colorSettings'\np27\nNsS'fontSize'\np28\nI12\nsS'maxLinkSize'\np29\nI3\nsS'edgeColorSettings'\np30\n(lp31\n(S'net_edges'\n(lp32\n(lp33\na(lp34\n(S'contPalette'\np35\n(L4294967295L\nL4278190080L\nI0\nttp36\naa(lp37\n(S'discPalette'\np38\n(lp39\n(I204\nI204\nI204\ntp40\na(I179\nI226\nI205\ntp41\na(I253\nI205\nI172\ntp42\na(I203\nI213\nI232\ntp43\na(I244\nI202\nI228\ntp44\na(I230\nI245\nI201\ntp45\na(I255\nI242\nI174\ntp46\na(I241\nI226\nI204\ntp47\natp48\naatp49\na(S'Default'\n(lp50\n(lp51\na(lp52\n(g35\n(L4294967295L\nL4278190080L\nI0\nttp53\naa(lp54\n(g38\n(lp55\n(I0\nI0\nI255\ntp56\na(I255\nI0\nI0\ntp57\na(I0\nI255\nI0\ntp58\na(I255\nI128\nI0\ntp59\na(I255\nI255\nI0\ntp60\na(I255\nI0\nI255\ntp61\na(I0\nI255\nI255\ntp62\na(I128\nI0\nI255\ntp63\na(I0\nI128\nI255\ntp64\na(I255\nI223\nI128\ntp65\na(I127\nI111\nI64\ntp66\na(I92\nI46\nI0\ntp67\na(I0\nI84\nI0\ntp68\na(I192\nI192\nI0\ntp69\na(I0\nI127\nI127\ntp70\na(I128\nI0\nI0\ntp71\na(I127\nI0\nI127\ntp72\natp73\naatp74\nasS'mdsAvgLinkage'\np75\nI0\nsS'optMethod'\np76\nI2\nsS'widgetShown'\np77\nI0\nsS'spinPercentage'\np78\nNsS'maxVertexSize'\np79\nI10\nsS'toolbarSelection'\np80\nI0\nsS'showWeights'\np81\nI0\nsS'showTextMiningInfo'\np82\nI00\nsS'widgetWidth'\np83\nI1316\nsS'lastLabelColumns'\np84\ng3\n((ltRp85\nsS'showMissingValues'\np86\nI0\nsS'lastVertexSizeColumn'\np87\ng9\n(g10\nS'QString'\n(V(same size)\np88\nttRp89\nsS'organism'\np90\nS'goa_human'\np91\ns."
p13
sS'Network from Distances (2)'
p14
S"(dp1\nS'kNN'\np2\nI0\nsS'andor'\np3\nI0\nsS'widgetHeight'\np4\nI608\nsS'widgetXPosition'\np5\nI0\nsS'widgetYPosition'\np6\nI22\nsS'spinUpperThreshold'\np7\nF0.96999999999999997\nsS'widgetShown'\np8\nI0\nsS'spinLowerThreshold'\np9\nF0.96999999999999997\nsS'widgetWidth'\np10\nI789\nsS'dstWeight'\np11\nI0\nsS'netOption'\np12\nI3\nsS'excludeLimit'\np13\nI1\ns."
p15
s.