(dp1
S'Test Learners'
p2
S"(dp1\nS'selectedCScores'\np2\nccopy_reg\n_reconstructor\np3\n(c__builtin__\nlist\np4\ng4\n(ttRp5\nI0\naI1\naI2\naI3\naI4\naI5\naI6\nasS'selectedRScores'\np6\ng3\n(g4\ng4\n(ttRp7\nI0\naI5\naI6\nasS'pLearning'\np8\nI70\nsS'sampleMethod'\np9\nI0\nsS'widgetXPosition'\np10\nI22\nsS'widgetYPosition'\np11\nI29\nsS'precision'\np12\nI4\nsS'widgetShown'\np13\nI0\nsS'pRepeat'\np14\nI5\nsS'widgetWidth'\np15\nI600\nsS'widgetHeight'\np16\nI470\nsS'localContexts'\np17\n(lp18\n(iOWContexts\nContext\np19\n(dp20\nS'values'\np21\n(dp22\nS'targetClass'\np23\n(I0\nI-2\ntp24\nssS'time'\np25\nF1189891957.8940001\nsS'noCopy'\np26\n(lp27\nS'orderedDomain'\np28\nasS'encodedDomain'\np29\n(dp30\nS'petal length'\np31\nI2\nsS'petal width'\np32\nI2\nsS'sepal width'\np33\nI2\nsS'sepal length'\np34\nI2\nsS'iris'\np35\nI1\nssba(iOWContexts\nContext\np36\n(dp37\nS'noCopy'\np38\n(lp39\nS'orderedDomain'\np40\nasS'encodedDomain'\np41\n(dp42\nS'astigmatic'\np43\nI1\nsS'tear_rate'\np44\nI1\nsS'age'\np45\nI2\nsS'prescription'\np46\nI1\nsS'lenses'\np47\nI1\nssS'values'\np48\n(dp49\nS'targetClass'\np50\n(I0\nI-2\ntp51\nssS'time'\np52\nF1190489567.016\nsba(iOWContexts\nContext\np53\n(dp54\nS'values'\np55\n(dp56\nS'targetClass'\np57\n(I0\nI-2\ntp58\nssS'time'\np59\nF1189545599.2609999\nsS'noCopy'\np60\n(lp61\nS'orderedDomain'\np62\nasS'encodedDomain'\np63\n(dp64\nS'dhkK'\np65\nI1\nsS'pkaR'\np66\nI1\nsS'acaA'\np67\nI1\nsS'gbfA'\np68\nI1\nsS'BC4V2_0_00680'\np69\nI1\nsS'erkB'\np70\nI1\nsS'dhkL'\np71\nI1\nsS'dhkC'\np72\nI1\nsS'wimA'\np73\nI1\nsS'pkaC'\np74\nI1\nsS'rzpA'\np75\nI1\nsS'comC'\np76\nI1\nsS'carA'\np77\nI1\nsS'JC3V2_0_02128'\np78\nI1\nsS'bzpR'\np79\nI1\nsS'pufA'\np80\nI1\nsS'regA'\np81\nI1\nssba(iOWContexts\nContext\np82\n(dp83\nS'noCopy'\np84\n(lp85\nS'orderedDomain'\np86\nasS'encodedDomain'\np87\n(dp88\nS'aquatic'\np89\nI1\nsS'name'\np90\nI6\nsS'feathers'\np91\nI1\nsS'eggs'\np92\nI1\nsS'backbone'\np93\nI1\nsS'domestic'\np94\nI1\nsS'predator'\np95\nI1\nsS'airborne'\np96\nI1\nsS'milk'\np97\nI1\nsS'hair'\np98\nI1\nsS'toothed'\np99\nI1\nsS'tail'\np100\nI1\nsS'breathes'\np101\nI1\nsS'catsize'\np102\nI1\nsS'venomous'\np103\nI1\nsS'legs'\np104\nI1\nsS'type'\np105\nI1\nsS'fins'\np106\nI1\nssS'values'\np107\n(dp108\nS'targetClass'\np109\n(I0\nI-2\ntp110\nssS'time'\np111\nF1188510384.7869999\nsba(iOWContexts\nContext\np112\n(dp113\nS'values'\np114\n(dp115\nS'targetClass'\np116\n(I0\nI-2\ntp117\nssS'time'\np118\nF1187708361.4760001\nsS'noCopy'\np119\n(lp120\nS'orderedDomain'\np121\nasS'encodedDomain'\np122\n(dp123\nS'L1-201'\np124\nI1\nsS'ScYOR267-278'\np125\nI1\nsS'L3-271'\np126\nI1\nsS'C11-189'\np127\nI1\nsS'L1-171'\np128\nI1\nsS'L2-375'\np129\nI1\nsS'Site'\np130\nI1\nsS'L2-378'\np131\nI1\nsS'L2-357'\np132\nI1\nsS'id'\np133\nI2\nsS'YPL009-298'\np134\nI1\nsS'C5-131'\np135\nI1\nsS'C11-215'\np136\nI1\nsS'C5-133'\np137\nI1\nsS'L6-256'\np138\nI1\nsS'C11-211'\np139\nI1\nsS'C4-254'\np140\nI1\nsS'C5-113'\np141\nI1\nsS'L5-222'\np142\nI1\nsS'L6-259'\np143\nI1\nsS'C4-257'\np144\nI1\nsS'C4-245'\np145\nI1\nsS'C4-242'\np146\nI1\nsS'ScYOR267-287'\np147\nI1\nsS'ScYOR267-320'\np148\nI1\nsS'ScYOR267-323'\np149\nI1\nsS'cls'\np150\nI1\nsS'YPL009-304'\np151\nI1\nsS'ScYOR267-326'\np152\nI1\nsS'YPL009-301'\np153\nI1\nsS'L3-268'\np154\nI1\nsS'L3-265'\np155\nI1\nsS'L3-262'\np156\nI1\nsS'C11-195'\np157\nI1\nsS'L3-247'\np158\nI1\nsS'STR'\np159\nI2\nsS'C11-193'\np160\nI1\nsS'C11-187'\np161\nI1\nsS'L5-219'\np162\nI1\nsS'L4-329'\np163\nI1\nsS'L5-216'\np164\nI1\nsS'C5-129'\np165\nI1\nsS'ScYOR267-290'\np166\nI1\nsS'L2-381'\np167\nI1\nsS'YPL009-319'\np168\nI1\nsS'C4-251'\np169\nI1\nsS'L3-250'\np170\nI1\nsS'C5-139'\np171\nI1\nsS'L1-198'\np172\nI1\nsS'ScYOR267-335'\np173\nI1\nsS'L3-259'\np174\nI1\nsS'L4-341'\np175\nI1\nssba(iOWContexts\nContext\np176\n(dp177\nS'noCopy'\np178\n(lp179\nS'orderedDomain'\np180\nasS'encodedDomain'\np181\n(dp182\nS'smiles'\np183\nI1\nsS'terrorist'\np184\nI1\nsS'zip'\np185\nI1\nsS'hair'\np186\nI1\nsS'shape'\np187\nI1\nsS'id'\np188\nI1\nssS'values'\np189\n(dp190\nS'targetClass'\np191\n(I1\nI-2\ntp192\nssS'time'\np193\nF1187095679.8670001\nsba(iOWContexts\nContext\np194\n(dp195\ng178\n(lp196\ng180\nasg181\n(dp197\nS'status'\np198\nI1\nsS'age'\np199\nI1\nsS'survived'\np200\nI1\nsS'sex'\np201\nI1\nssg189\n(dp202\nS'targetClass'\np203\n(I0\nI-2\ntp204\nssg193\nF1187095642.4530001\nsba(iOWContexts\nContext\np205\n(dp206\nS'values'\np207\n(dp208\nS'targetClass'\np209\n(I0\nI-2\ntp210\nssS'time'\np211\nF1186847291.3010001\nsS'noCopy'\np212\n(lp213\nS'orderedDomain'\np214\nasS'encodedDomain'\np215\n(dp216\nS'horsepower'\np217\nI2\nsS'acceleration'\np218\nI2\nsS'displacement'\np219\nI2\nsS'weight'\np220\nI2\nsS'mpg'\np221\nI2\nssba(iOWContexts\nContext\np222\n(dp223\ng207\n(dp224\nS'targetClass'\np225\n(I1\nI-2\ntp226\nssg211\nF1186847291.1400001\nsg212\n(lp227\ng214\nasg215\n(dp228\nS'handicapped-infants'\np229\nI1\nsS'superfund-right-to-sue'\np230\nI1\nsS'duty-free-exports'\np231\nI1\nsS'aid-to-nicaraguan-contras'\np232\nI1\nsS'immigration'\np233\nI1\nsS'crime'\np234\nI1\nsS'el-salvador-aid'\np235\nI1\nsS'education-spending'\np236\nI1\nsS'synfuels-corporation-cutback'\np237\nI1\nsS'religious-groups-in-schools'\np238\nI1\nsS'mx-missile'\np239\nI1\nsS'anti-satellite-test-ban'\np240\nI1\nsS'water-project-cost-sharing'\np241\nI1\nsS'party'\np242\nI1\nsS'export-administration-act-south-africa'\np243\nI1\nsS'adoption-of-the-budget-resolution'\np244\nI1\nsS'physician-fee-freeze'\np245\nI1\nssba(iOWContexts\nContext\np246\n(dp247\ng207\n(dp248\nS'targetClass'\np249\n(I1\nI-2\ntp250\nssg211\nF1186847290.79\nsg212\n(lp251\ng214\nasg215\n(dp252\nS'Outlook'\np253\nI1\nsS'Temperature'\np254\nI1\nsS'Play'\np255\nI1\nsS'Humidity'\np256\nI1\nsS'Windy'\np257\nI1\nsS'Orig'\np258\nI1\nssbasS'nFolds'\np259\nI6\nsS'applyOnAnyChange'\np260\nI0\ns."
p3
sS'Naive Bayes'
p4
S"(dp1\nS'adjustThreshold'\np2\nI1\nsS'name'\np3\nS'Naive Bayes'\np4\nsS'probEstimation'\np5\nI0\nsS'm_estimator.m'\np6\nF2\nsS'widgetHeight'\np7\nI392\nsS'condProbEstimation'\np8\nI3\nsS'widgetYPosition'\np9\nI58\nsS'widgetShown'\np10\nI1\nsS'windowProportion'\np11\nF0.5\nsS'widgetWidth'\np12\nI301\nsS'widgetXPosition'\np13\nI44\ns."
p5
sS'File'
p6
S"(dp1\nS'symbolDK'\np2\nS'~'\nsS'widgetHeight'\np3\nI297\nsS'widgetXPosition'\np4\nI22\nsS'symbolDC'\np5\nS'?'\nsS'widgetShown'\np6\nI0\nsS'createNewOn'\np7\nI2\nsS'widgetWidth'\np8\nI315\nsS'widgetYPosition'\np9\nI29\nsS'recentFiles'\np10\n(lp11\nS'C:/Python25/Lib/site-packages/orange/doc/datasets/iris.tab'\np12\naS'C:/Python25/Lib/site-packages/orange/doc/datasets/adult_sample.tab'\np13\naS'C:/Python25/Lib/site-packages/orange/WidgetDebugging/datasets/constant_attribute___continuous.tab'\np14\naS'C:/Python25/Lib/site-packages/orange/WidgetDebugging/datasets/zoo-noclass.tab'\np15\naS'C:/Python25/Lib/site-packages/orange/doc/datasets/voting.tab'\np16\naS'D:/predavanja/UISP/delavnice/sailing-big.tab'\np17\naS'D:/predavanja/UISP/delavnice/terrorists3.tab'\np18\naS'C:/Python25/Lib/site-packages/orange/doc/datasets/zoo.tab'\np19\naS'D:/experiments/07 anup/epi/data_complete.tab'\np20\naS'D:/experiments/07 anup/pka-net-data.tab'\np21\naS'D:/experiments/07 yeast strains/47_strains_1_pp.tab'\np22\naS'D:/experiments/07 yeast strains/0.tab'\np23\naS'D:/experiments/07 yeast strains/All_strains_1_pp.tab'\np24\naS'D:/experiments/06 smrke - other data sets/tmp.tab'\np25\naS'C:/Python25/Lib/site-packages/orange/doc/datasets/heart_disease.tab'\np26\naS'C:/Python25/Lib/site-packages/orange/doc/datasets/titanic.tab'\np27\naS'C:/Python25/Lib/site-packages/orange/doc/datasets/housing.tab'\np28\naS'D:/predavanja/OZP/domace naloge/2007/1-nbc/medo.tab'\np29\naS'D:/predavanja/UISP/delavnice/terrorists2.tab'\np30\naS'D:/experiments/06 pharma/calc/05-cur-w-calc.tab'\np31\naS'D:/predavanja/OZP/delavnice/churn/churn.tab'\np32\nas."
p7
s.