(dp1
S'Select Attributes'
p2
S"(dp1\nS'widgetHeight'\np2\nI480\nsS'widgetXPosition'\np3\nI480\nsS'widgetYPosition'\np4\nI360\nsS'widgetShown'\np5\nI0\nsS'savedWidgetGeometry'\np6\nS'\\x01\\xd9\\xd0\\xcb\\x00\\x01\\x00\\x00\\x00\\x00\\x01\\xe0\\x00\\x00\\x01h\\x00\\x00\\x03o\\x00\\x00\\x03]\\x00\\x00\\x01\\xe0\\x00\\x00\\x01~\\x00\\x00\\x03o\\x00\\x00\\x03]\\x00\\x00\\x00\\x00\\x00\\x00'\np7\nsS'widgetWidth'\np8\nI400\nsS'localContextsVersion'\np9\n(I100\nI0\ntp10\nsS'localContexts'\np11\n(lp12\n(iOWContexts\nContext\np13\n(dp14\nS'metas'\np15\n(dp16\nsS'values'\np17\n(dp18\nS'selectedMeta'\np19\n(lp20\nsS'metaAttributes'\np21\n(lp22\nsS'selectedChosen'\np23\n(lp24\nsS'chosenAttributes'\np25\n(lp26\n(S'sepal length'\ncorange\n__pickleLoaderNamedConstants\np27\n(S'Variable_Type'\n(I2\nttRp28\ntp29\na(S'sepal width'\ng27\n(S'Variable_Type'\n(I2\nttRp30\ntp31\na(S'petal length'\ng27\n(S'Variable_Type'\n(I2\nttRp32\ntp33\nasS'classAttribute'\np34\n(lp35\n(S'petal width'\ng27\n(S'Variable_Type'\n(I2\nttRp36\ntp37\nasS'selectedClass'\np38\n(lp39\nI0\nassS'time'\np40\nF1317805362.508585\nsS'attributes'\np41\n(dp42\nS'petal length'\np43\ng27\n(S'Variable_Type'\n(I2\nttRp44\nsS'petal width'\np45\ng27\n(S'Variable_Type'\n(I2\nttRp46\nsS'sepal width'\np47\ng27\n(S'Variable_Type'\n(I2\nttRp48\nsS'sepal length'\np49\ng27\n(S'Variable_Type'\n(I2\nttRp50\nsS'iris'\np51\ng27\n(S'Variable_Type'\n(I1\nttRp52\nssS'noCopy'\np53\n(lp54\nS'orderedDomain'\np55\nasba(iOWContexts\nContext\np56\n(dp57\ng53\n(lp58\nS'orderedDomain'\np59\nasg41\n(dp60\nS'sepal width'\np61\ng27\n(S'Variable_Type'\n(I2\nttRp62\nsS'petal width'\np63\ng27\n(S'Variable_Type'\n(I2\nttRp64\nsS'petal length'\np65\ng27\n(S'Variable_Type'\n(I2\nttRp66\nsS'sepal length'\np67\ng27\n(S'Variable_Type'\n(I2\nttRp68\nsS'iris'\np69\ng27\n(S'Variable_Type'\n(I1\nttRp70\nssg15\n(dp71\nsg17\n(dp72\nS'selectedMeta'\np73\n(lp74\nsS'metaAttributes'\np75\n(lp76\nsS'selectedChosen'\np77\n(lp78\nsS'chosenAttributes'\np79\n(lp80\n(S'sepal length'\ng27\n(S'Variable_Type'\n(I2\nttRp81\ntp82\na(S'sepal width'\ng27\n(S'Variable_Type'\n(I2\nttRp83\ntp84\na(S'petal length'\ng27\n(S'Variable_Type'\n(I2\nttRp85\ntp86\nasS'classAttribute'\np87\n(lp88\n(S'petal width'\ng27\n(S'Variable_Type'\n(I2\nttRp89\ntp90\nasS'selectedClass'\np91\n(lp92\nI0\nassg40\nF1316702547.337595\nsba(iOWContexts\nContext\np93\n(dp94\ng17\n(dp95\nS'selectedMeta'\np96\n(lp97\nsS'metaAttributes'\np98\n(lp99\nsS'selectedChosen'\np100\n(lp101\nsS'chosenAttributes'\np102\n(lp103\nsS'classAttribute'\np104\n(lp105\n(S'HC_class'\ng27\n(S'Variable_Type'\n(I1\nttRp106\ntp107\nasS'selectedClass'\np108\n(lp109\nssg41\n(dp110\nS'HC_class'\np111\ng27\n(S'Variable_Type'\n(I1\nttRp112\nsS'sepal width'\np113\ng27\n(S'Variable_Type'\n(I2\nttRp114\nsS'petal length'\np115\ng27\n(S'Variable_Type'\n(I2\nttRp116\nsS'petal width'\np117\ng27\n(S'Variable_Type'\n(I2\nttRp118\nsS'sepal length'\np119\ng27\n(S'Variable_Type'\n(I2\nttRp120\nsS'iris=Iris-virginica'\np121\ng27\n(S'Variable_Type'\n(I2\nttRp122\nsS'iris=Iris-versicolor'\np123\ng27\n(S'Variable_Type'\n(I2\nttRp124\nsS'iris=Iris-setosa'\np125\ng27\n(S'Variable_Type'\n(I2\nttRp126\nssg15\n(dp127\nsg53\n(lp128\ng59\nasg40\nF1316702547.337595\nsba(iOWContexts\nContext\np129\n(dp130\ng53\n(lp131\ng59\nasg41\n(dp132\nS'Smoking category'\np133\ng27\n(S'Variable_Type'\n(I1\nttRp134\nsS'Staff group'\np135\ng27\n(S'Variable_Type'\n(I1\nttRp136\nsS'Id'\np137\ng27\n(S'Variable_Type'\n(I6\nttRp138\nssg15\n(dp139\nsg17\n(dp140\nS'selectedMeta'\np141\n(lp142\nsS'metaAttributes'\np143\n(lp144\nsS'selectedChosen'\np145\n(lp146\nsS'chosenAttributes'\np147\n(lp148\n(S'Staff group'\ng27\n(S'Variable_Type'\n(I1\nttRp149\ntp150\na(S'Smoking category'\ng27\n(S'Variable_Type'\n(I1\nttRp151\ntp152\nasS'classAttribute'\np153\n(lp154\nsS'selectedClass'\np155\n(lp156\nssg40\nF1316702547.337595\nsba(iOWContexts\nContext\np157\n(dp158\ng53\n(lp159\ng59\nasg41\n(dp160\nS'astigmatic'\np161\ng27\n(S'Variable_Type'\n(I1\nttRp162\nsS'tear_rate'\np163\ng27\n(S'Variable_Type'\n(I1\nttRp164\nsS'age'\np165\ng27\n(S'Variable_Type'\n(I1\nttRp166\nsS'prescription'\np167\ng27\n(S'Variable_Type'\n(I1\nttRp168\nsS'lenses'\np169\ng27\n(S'Variable_Type'\n(I1\nttRp170\nssg15\n(dp171\nsg17\n(dp172\ng141\n(lp173\nsg143\n(lp174\nsg145\n(lp175\nsg147\n(lp176\nsg153\n(lp177\nsg155\n(lp178\nssg40\nF1316702547.337595\nsba(iOWContexts\nContext\np179\n(dp180\ng53\n(lp181\ng59\nasg41\n(dp182\nS'HPBT104.CEL'\np183\ng27\n(S'Variable_Type'\n(I2\nttRp184\nsS'HPBT203.CEL'\np185\ng27\n(S'Variable_Type'\n(I2\nttRp186\nsS'HPBT201.CEL'\np187\ng27\n(S'Variable_Type'\n(I2\nttRp188\nsS'HPBT306.CEL'\np189\ng27\n(S'Variable_Type'\n(I2\nttRp190\nsS'HPBT302.CEL'\np191\ng27\n(S'Variable_Type'\n(I2\nttRp192\nsS'HPBT206.CEL'\np193\ng27\n(S'Variable_Type'\n(I2\nttRp194\nsS'HPBT204.CEL'\np195\ng27\n(S'Variable_Type'\n(I2\nttRp196\nsS'HPBT108.CEL'\np197\ng27\n(S'Variable_Type'\n(I2\nttRp198\nsS'HPBT208.CEL'\np199\ng27\n(S'Variable_Type'\n(I2\nttRp200\nsS'HPBT105.CEL'\np201\ng27\n(S'Variable_Type'\n(I2\nttRp202\nsS'HPBT107.CEL'\np203\ng27\n(S'Variable_Type'\n(I2\nttRp204\nsS'HPBT202.CEL'\np205\ng27\n(S'Variable_Type'\n(I2\nttRp206\nsS'HPBT102.CEL'\np207\ng27\n(S'Variable_Type'\n(I2\nttRp208\nsS'HPBT307.CEL'\np209\ng27\n(S'Variable_Type'\n(I2\nttRp210\nsS'HPBT305.CEL'\np211\ng27\n(S'Variable_Type'\n(I2\nttRp212\nsS'HPBT308.CEL'\np213\ng27\n(S'Variable_Type'\n(I2\nttRp214\nsS'HPBT303.CEL'\np215\ng27\n(S'Variable_Type'\n(I2\nttRp216\nsS'HPBT103.CEL'\np217\ng27\n(S'Variable_Type'\n(I2\nttRp218\nsS'HPBT301.CEL'\np219\ng27\n(S'Variable_Type'\n(I2\nttRp220\nsS'HPBT207.CEL'\np221\ng27\n(S'Variable_Type'\n(I2\nttRp222\nsS'HPBT205.CEL'\np223\ng27\n(S'Variable_Type'\n(I2\nttRp224\nsS'HPBT106.CEL'\np225\ng27\n(S'Variable_Type'\n(I2\nttRp226\nsS'HPBT101.CEL'\np227\ng27\n(S'Variable_Type'\n(I2\nttRp228\nsS'HPBT304.CEL'\np229\ng27\n(S'Variable_Type'\n(I2\nttRp230\nssg15\n(dp231\nS'Composite Element REF'\np232\ng27\n(S'Variable_Type'\n(I6\nttRp233\nssg17\n(dp234\nS'selectedMeta'\np235\n(lp236\nsS'metaAttributes'\np237\n(lp238\nsS'selectedChosen'\np239\n(lp240\nsS'chosenAttributes'\np241\n(lp242\nsS'classAttribute'\np243\n(lp244\nsS'selectedClass'\np245\n(lp246\nssg40\nF1316702547.337595\nsba(iOWContexts\nContext\np247\n(dp248\ng53\n(lp249\nS'orderedDomain'\np250\nasg41\n(dp251\nS'Elu 270'\np252\ng27\n(S'Variable_Type'\n(I2\nttRp253\nsS'spo5 7'\np254\ng27\n(S'Variable_Type'\n(I2\nttRp255\nsS'Elu 30'\np256\ng27\n(S'Variable_Type'\n(I2\nttRp257\nsS'Elu 390'\np258\ng27\n(S'Variable_Type'\n(I2\nttRp259\nsS'alpha 56'\np260\ng27\n(S'Variable_Type'\n(I2\nttRp261\nsS'Elu 210'\np262\ng27\n(S'Variable_Type'\n(I2\nttRp263\nsS'Elu 60'\np264\ng27\n(S'Variable_Type'\n(I2\nttRp265\nsS'cdc15 130'\np266\ng27\n(S'Variable_Type'\n(I2\nttRp267\nsS'Elu 330'\np268\ng27\n(S'Variable_Type'\n(I2\nttRp269\nsS'alpha 14'\np270\ng27\n(S'Variable_Type'\n(I2\nttRp271\nsS'cdc15 50'\np272\ng27\n(S'Variable_Type'\n(I2\nttRp273\nsS'spo 11'\np274\ng27\n(S'Variable_Type'\n(I2\nttRp275\nsS'spo- mid'\np276\ng27\n(S'Variable_Type'\n(I2\nttRp277\nsS'dtt 15'\np278\ng27\n(S'Variable_Type'\n(I2\nttRp279\nsS'alpha 91'\np280\ng27\n(S'Variable_Type'\n(I2\nttRp281\nsS'Elu 90'\np282\ng27\n(S'Variable_Type'\n(I2\nttRp283\nsS'alpha 105'\np284\ng27\n(S'Variable_Type'\n(I2\nttRp285\nsS'dtt 30'\np286\ng27\n(S'Variable_Type'\n(I2\nttRp287\nsS'spo5 2'\np288\ng27\n(S'Variable_Type'\n(I2\nttRp289\nsS'Elu 150'\np290\ng27\n(S'Variable_Type'\n(I2\nttRp291\nsS'cold 20'\np292\ng27\n(S'Variable_Type'\n(I2\nttRp293\nsS'cdc15 10'\np294\ng27\n(S'Variable_Type'\n(I2\nttRp295\nsS'alpha 0'\np296\ng27\n(S'Variable_Type'\n(I2\nttRp297\nsS'alpha 7'\np298\ng27\n(S'Variable_Type'\n(I2\nttRp299\nsS'heat 80'\np300\ng27\n(S'Variable_Type'\n(I2\nttRp301\nsS'diau a'\np302\ng27\n(S'Variable_Type'\n(I2\nttRp303\nsS'diau c'\np304\ng27\n(S'Variable_Type'\n(I2\nttRp305\nsS'diau b'\np306\ng27\n(S'Variable_Type'\n(I2\nttRp307\nsS'diau e'\np308\ng27\n(S'Variable_Type'\n(I2\nttRp309\nsS'diau d'\np310\ng27\n(S'Variable_Type'\n(I2\nttRp311\nsS'spo5 11'\np312\ng27\n(S'Variable_Type'\n(I2\nttRp313\nsS'diau f'\np314\ng27\n(S'Variable_Type'\n(I2\nttRp315\nsS'cold 160'\np316\ng27\n(S'Variable_Type'\n(I2\nttRp317\nsS'alpha 28'\np318\ng27\n(S'Variable_Type'\n(I2\nttRp319\nsS'alpha 98'\np320\ng27\n(S'Variable_Type'\n(I2\nttRp321\nsS'cdc15 70'\np322\ng27\n(S'Variable_Type'\n(I2\nttRp323\nsS'function'\np324\ng27\n(S'Variable_Type'\n(I1\nttRp325\nsS'heat 40'\np326\ng27\n(S'Variable_Type'\n(I2\nttRp327\nsS'alpha 42'\np328\ng27\n(S'Variable_Type'\n(I2\nttRp329\nsS'cdc15 170'\np330\ng27\n(S'Variable_Type'\n(I2\nttRp331\nsS'alpha 63'\np332\ng27\n(S'Variable_Type'\n(I2\nttRp333\nsS'Elu 360'\np334\ng27\n(S'Variable_Type'\n(I2\nttRp335\nsS'heat 160'\np336\ng27\n(S'Variable_Type'\n(I2\nttRp337\nsS'dtt 120'\np338\ng27\n(S'Variable_Type'\n(I2\nttRp339\nsS'alpha 49'\np340\ng27\n(S'Variable_Type'\n(I2\nttRp341\nsS'Elu 180'\np342\ng27\n(S'Variable_Type'\n(I2\nttRp343\nsS'heat 20'\np344\ng27\n(S'Variable_Type'\n(I2\nttRp345\nsS'Elu 240'\np346\ng27\n(S'Variable_Type'\n(I2\nttRp347\nsS'cdc15 150'\np348\ng27\n(S'Variable_Type'\n(I2\nttRp349\nsS'alpha 84'\np350\ng27\n(S'Variable_Type'\n(I2\nttRp351\nsS'cdc15 110'\np352\ng27\n(S'Variable_Type'\n(I2\nttRp353\nsS'cdc15 290'\np354\ng27\n(S'Variable_Type'\n(I2\nttRp355\nsS'cold 40'\np356\ng27\n(S'Variable_Type'\n(I2\nttRp357\nsS'cold 0'\np358\ng27\n(S'Variable_Type'\n(I2\nttRp359\nsS'alpha 112'\np360\ng27\n(S'Variable_Type'\n(I2\nttRp361\nsS'cdc15 270'\np362\ng27\n(S'Variable_Type'\n(I2\nttRp363\nsS'diau g'\np364\ng27\n(S'Variable_Type'\n(I2\nttRp365\nsS'cdc15 230'\np366\ng27\n(S'Variable_Type'\n(I2\nttRp367\nsS'spo 0'\np368\ng27\n(S'Variable_Type'\n(I2\nttRp369\nsS'spo 2'\np370\ng27\n(S'Variable_Type'\n(I2\nttRp371\nsS'spo 5'\np372\ng27\n(S'Variable_Type'\n(I2\nttRp373\nsS'cdc15 250'\np374\ng27\n(S'Variable_Type'\n(I2\nttRp375\nsS'spo 7'\np376\ng27\n(S'Variable_Type'\n(I2\nttRp377\nsS'Elu 120'\np378\ng27\n(S'Variable_Type'\n(I2\nttRp379\nsS'Elu 0'\np380\ng27\n(S'Variable_Type'\n(I2\nttRp381\nsS'cdc15 90'\np382\ng27\n(S'Variable_Type'\n(I2\nttRp383\nsS'Elu 300'\np384\ng27\n(S'Variable_Type'\n(I2\nttRp385\nsS'alpha 119'\np386\ng27\n(S'Variable_Type'\n(I2\nttRp387\nsS'alpha 35'\np388\ng27\n(S'Variable_Type'\n(I2\nttRp389\nsS'spo 9'\np390\ng27\n(S'Variable_Type'\n(I2\nttRp391\nsS'spo- early'\np392\ng27\n(S'Variable_Type'\n(I2\nttRp393\nsS'heat 10'\np394\ng27\n(S'Variable_Type'\n(I2\nttRp395\nsS'heat 0'\np396\ng27\n(S'Variable_Type'\n(I2\nttRp397\nsS'cdc15 210'\np398\ng27\n(S'Variable_Type'\n(I2\nttRp399\nsS'cdc15 190'\np400\ng27\n(S'Variable_Type'\n(I2\nttRp401\nsS'alpha 70'\np402\ng27\n(S'Variable_Type'\n(I2\nttRp403\nsS'cdc15 30'\np404\ng27\n(S'Variable_Type'\n(I2\nttRp405\nsS'dtt 60'\np406\ng27\n(S'Variable_Type'\n(I2\nttRp407\nsS'alpha 77'\np408\ng27\n(S'Variable_Type'\n(I2\nttRp409\nsS'alpha 21'\np410\ng27\n(S'Variable_Type'\n(I2\nttRp411\nssg15\n(dp412\nS'gene'\np413\ng27\n(S'Variable_Type'\n(I6\nttRp414\nssg17\n(dp415\nS'selectedMeta'\np416\n(lp417\nsS'metaAttributes'\np418\n(lp419\n(S'gene'\ng27\n(S'Variable_Type'\n(I6\nttRp420\ntp421\nasS'selectedChosen'\np422\n(lp423\nsS'chosenAttributes'\np424\n(lp425\n(S'alpha 0'\ng27\n(S'Variable_Type'\n(I2\nttRp426\ntp427\na(S'alpha 7'\ng27\n(S'Variable_Type'\n(I2\nttRp428\ntp429\na(S'alpha 14'\ng27\n(S'Variable_Type'\n(I2\nttRp430\ntp431\na(S'alpha 21'\ng27\n(S'Variable_Type'\n(I2\nttRp432\ntp433\na(S'alpha 28'\ng27\n(S'Variable_Type'\n(I2\nttRp434\ntp435\na(S'alpha 35'\ng27\n(S'Variable_Type'\n(I2\nttRp436\ntp437\na(S'alpha 42'\ng27\n(S'Variable_Type'\n(I2\nttRp438\ntp439\na(S'alpha 49'\ng27\n(S'Variable_Type'\n(I2\nttRp440\ntp441\na(S'alpha 56'\ng27\n(S'Variable_Type'\n(I2\nttRp442\ntp443\na(S'alpha 63'\ng27\n(S'Variable_Type'\n(I2\nttRp444\ntp445\na(S'alpha 70'\ng27\n(S'Variable_Type'\n(I2\nttRp446\ntp447\na(S'alpha 77'\ng27\n(S'Variable_Type'\n(I2\nttRp448\ntp449\na(S'alpha 84'\ng27\n(S'Variable_Type'\n(I2\nttRp450\ntp451\na(S'alpha 91'\ng27\n(S'Variable_Type'\n(I2\nttRp452\ntp453\na(S'alpha 98'\ng27\n(S'Variable_Type'\n(I2\nttRp454\ntp455\na(S'alpha 105'\ng27\n(S'Variable_Type'\n(I2\nttRp456\ntp457\na(S'alpha 112'\ng27\n(S'Variable_Type'\n(I2\nttRp458\ntp459\na(S'alpha 119'\ng27\n(S'Variable_Type'\n(I2\nttRp460\ntp461\na(S'Elu 0'\ng27\n(S'Variable_Type'\n(I2\nttRp462\ntp463\na(S'Elu 30'\ng27\n(S'Variable_Type'\n(I2\nttRp464\ntp465\na(S'Elu 60'\ng27\n(S'Variable_Type'\n(I2\nttRp466\ntp467\na(S'Elu 90'\ng27\n(S'Variable_Type'\n(I2\nttRp468\ntp469\na(S'Elu 120'\ng27\n(S'Variable_Type'\n(I2\nttRp470\ntp471\na(S'Elu 150'\ng27\n(S'Variable_Type'\n(I2\nttRp472\ntp473\na(S'Elu 180'\ng27\n(S'Variable_Type'\n(I2\nttRp474\ntp475\na(S'Elu 210'\ng27\n(S'Variable_Type'\n(I2\nttRp476\ntp477\na(S'Elu 240'\ng27\n(S'Variable_Type'\n(I2\nttRp478\ntp479\na(S'Elu 270'\ng27\n(S'Variable_Type'\n(I2\nttRp480\ntp481\na(S'Elu 300'\ng27\n(S'Variable_Type'\n(I2\nttRp482\ntp483\na(S'Elu 330'\ng27\n(S'Variable_Type'\n(I2\nttRp484\ntp485\na(S'Elu 360'\ng27\n(S'Variable_Type'\n(I2\nttRp486\ntp487\na(S'Elu 390'\ng27\n(S'Variable_Type'\n(I2\nttRp488\ntp489\na(S'cdc15 10'\ng27\n(S'Variable_Type'\n(I2\nttRp490\ntp491\na(S'cdc15 30'\ng27\n(S'Variable_Type'\n(I2\nttRp492\ntp493\na(S'cdc15 50'\ng27\n(S'Variable_Type'\n(I2\nttRp494\ntp495\na(S'cdc15 70'\ng27\n(S'Variable_Type'\n(I2\nttRp496\ntp497\na(S'cdc15 90'\ng27\n(S'Variable_Type'\n(I2\nttRp498\ntp499\na(S'cdc15 110'\ng27\n(S'Variable_Type'\n(I2\nttRp500\ntp501\na(S'cdc15 130'\ng27\n(S'Variable_Type'\n(I2\nttRp502\ntp503\na(S'cdc15 150'\ng27\n(S'Variable_Type'\n(I2\nttRp504\ntp505\na(S'cdc15 170'\ng27\n(S'Variable_Type'\n(I2\nttRp506\ntp507\na(S'cdc15 190'\ng27\n(S'Variable_Type'\n(I2\nttRp508\ntp509\na(S'cdc15 210'\ng27\n(S'Variable_Type'\n(I2\nttRp510\ntp511\na(S'cdc15 230'\ng27\n(S'Variable_Type'\n(I2\nttRp512\ntp513\na(S'cdc15 250'\ng27\n(S'Variable_Type'\n(I2\nttRp514\ntp515\na(S'cdc15 270'\ng27\n(S'Variable_Type'\n(I2\nttRp516\ntp517\na(S'cdc15 290'\ng27\n(S'Variable_Type'\n(I2\nttRp518\ntp519\na(S'spo 0'\ng27\n(S'Variable_Type'\n(I2\nttRp520\ntp521\na(S'spo 2'\ng27\n(S'Variable_Type'\n(I2\nttRp522\ntp523\na(S'spo 5'\ng27\n(S'Variable_Type'\n(I2\nttRp524\ntp525\na(S'spo 7'\ng27\n(S'Variable_Type'\n(I2\nttRp526\ntp527\na(S'spo 9'\ng27\n(S'Variable_Type'\n(I2\nttRp528\ntp529\na(S'spo 11'\ng27\n(S'Variable_Type'\n(I2\nttRp530\ntp531\na(S'spo5 2'\ng27\n(S'Variable_Type'\n(I2\nttRp532\ntp533\na(S'spo5 7'\ng27\n(S'Variable_Type'\n(I2\nttRp534\ntp535\na(S'spo5 11'\ng27\n(S'Variable_Type'\n(I2\nttRp536\ntp537\na(S'spo- early'\ng27\n(S'Variable_Type'\n(I2\nttRp538\ntp539\na(S'spo- mid'\ng27\n(S'Variable_Type'\n(I2\nttRp540\ntp541\na(S'heat 0'\ng27\n(S'Variable_Type'\n(I2\nttRp542\ntp543\na(S'heat 10'\ng27\n(S'Variable_Type'\n(I2\nttRp544\ntp545\na(S'heat 20'\ng27\n(S'Variable_Type'\n(I2\nttRp546\ntp547\na(S'heat 40'\ng27\n(S'Variable_Type'\n(I2\nttRp548\ntp549\na(S'heat 80'\ng27\n(S'Variable_Type'\n(I2\nttRp550\ntp551\na(S'heat 160'\ng27\n(S'Variable_Type'\n(I2\nttRp552\ntp553\na(S'dtt 15'\ng27\n(S'Variable_Type'\n(I2\nttRp554\ntp555\na(S'dtt 30'\ng27\n(S'Variable_Type'\n(I2\nttRp556\ntp557\na(S'dtt 60'\ng27\n(S'Variable_Type'\n(I2\nttRp558\ntp559\na(S'dtt 120'\ng27\n(S'Variable_Type'\n(I2\nttRp560\ntp561\na(S'cold 0'\ng27\n(S'Variable_Type'\n(I2\nttRp562\ntp563\na(S'cold 20'\ng27\n(S'Variable_Type'\n(I2\nttRp564\ntp565\na(S'cold 40'\ng27\n(S'Variable_Type'\n(I2\nttRp566\ntp567\na(S'cold 160'\ng27\n(S'Variable_Type'\n(I2\nttRp568\ntp569\na(S'diau a'\ng27\n(S'Variable_Type'\n(I2\nttRp570\ntp571\na(S'diau b'\ng27\n(S'Variable_Type'\n(I2\nttRp572\ntp573\na(S'diau c'\ng27\n(S'Variable_Type'\n(I2\nttRp574\ntp575\na(S'diau d'\ng27\n(S'Variable_Type'\n(I2\nttRp576\ntp577\na(S'diau e'\ng27\n(S'Variable_Type'\n(I2\nttRp578\ntp579\na(S'diau f'\ng27\n(S'Variable_Type'\n(I2\nttRp580\ntp581\na(S'diau g'\ng27\n(S'Variable_Type'\n(I2\nttRp582\ntp583\nasS'classAttribute'\np584\n(lp585\n(S'function'\ng27\n(S'Variable_Type'\n(I1\nttRp586\ntp587\nasS'selectedClass'\np588\n(lp589\nssg40\nF1316702542.576169\nsba(iOWContexts\nContext\np590\n(dp591\ng53\n(lp592\nS'orderedDomain'\np593\nasg41\n(dp594\nS'Elu 270'\np595\ng27\n(S'Variable_Type'\n(I2\nttRp596\nsS'spo5 7'\np597\ng27\n(S'Variable_Type'\n(I2\nttRp598\nsS'Elu 30'\np599\ng27\n(S'Variable_Type'\n(I2\nttRp600\nsS'Elu 390'\np601\ng27\n(S'Variable_Type'\n(I2\nttRp602\nsS'alpha 56'\np603\ng27\n(S'Variable_Type'\n(I2\nttRp604\nsS'Elu 210'\np605\ng27\n(S'Variable_Type'\n(I2\nttRp606\nsS'Elu 60'\np607\ng27\n(S'Variable_Type'\n(I2\nttRp608\nsS'cdc15 130'\np609\ng27\n(S'Variable_Type'\n(I2\nttRp610\nsS'Elu 330'\np611\ng27\n(S'Variable_Type'\n(I2\nttRp612\nsS'alpha 14'\np613\ng27\n(S'Variable_Type'\n(I2\nttRp614\nsS'cdc15 50'\np615\ng27\n(S'Variable_Type'\n(I2\nttRp616\nsS'spo 11'\np617\ng27\n(S'Variable_Type'\n(I2\nttRp618\nsS'spo- mid'\np619\ng27\n(S'Variable_Type'\n(I2\nttRp620\nsS'dtt 15'\np621\ng27\n(S'Variable_Type'\n(I2\nttRp622\nsS'alpha 91'\np623\ng27\n(S'Variable_Type'\n(I2\nttRp624\nsS'Elu 90'\np625\ng27\n(S'Variable_Type'\n(I2\nttRp626\nsS'alpha 105'\np627\ng27\n(S'Variable_Type'\n(I2\nttRp628\nsS'dtt 30'\np629\ng27\n(S'Variable_Type'\n(I2\nttRp630\nsS'spo5 2'\np631\ng27\n(S'Variable_Type'\n(I2\nttRp632\nsS'Elu 150'\np633\ng27\n(S'Variable_Type'\n(I2\nttRp634\nsS'cold 20'\np635\ng27\n(S'Variable_Type'\n(I2\nttRp636\nsS'cdc15 10'\np637\ng27\n(S'Variable_Type'\n(I2\nttRp638\nsS'alpha 0'\np639\ng27\n(S'Variable_Type'\n(I2\nttRp640\nsS'alpha 7'\np641\ng27\n(S'Variable_Type'\n(I2\nttRp642\nsS'heat 80'\np643\ng27\n(S'Variable_Type'\n(I2\nttRp644\nsS'diau a'\np645\ng27\n(S'Variable_Type'\n(I2\nttRp646\nsS'diau c'\np647\ng27\n(S'Variable_Type'\n(I2\nttRp648\nsS'diau b'\np649\ng27\n(S'Variable_Type'\n(I2\nttRp650\nsS'diau e'\np651\ng27\n(S'Variable_Type'\n(I2\nttRp652\nsS'diau d'\np653\ng27\n(S'Variable_Type'\n(I2\nttRp654\nsS'spo5 11'\np655\ng27\n(S'Variable_Type'\n(I2\nttRp656\nsS'diau f'\np657\ng27\n(S'Variable_Type'\n(I2\nttRp658\nsS'cold 160'\np659\ng27\n(S'Variable_Type'\n(I2\nttRp660\nsS'alpha 28'\np661\ng27\n(S'Variable_Type'\n(I2\nttRp662\nsS'alpha 98'\np663\ng27\n(S'Variable_Type'\n(I2\nttRp664\nsS'cdc15 70'\np665\ng27\n(S'Variable_Type'\n(I2\nttRp666\nsS'function'\np667\ng27\n(S'Variable_Type'\n(I1\nttRp668\nsS'heat 40'\np669\ng27\n(S'Variable_Type'\n(I2\nttRp670\nsS'alpha 42'\np671\ng27\n(S'Variable_Type'\n(I2\nttRp672\nsS'cdc15 170'\np673\ng27\n(S'Variable_Type'\n(I2\nttRp674\nsS'alpha 63'\np675\ng27\n(S'Variable_Type'\n(I2\nttRp676\nsS'Elu 360'\np677\ng27\n(S'Variable_Type'\n(I2\nttRp678\nsS'heat 160'\np679\ng27\n(S'Variable_Type'\n(I2\nttRp680\nsS'dtt 120'\np681\ng27\n(S'Variable_Type'\n(I2\nttRp682\nsS'alpha 49'\np683\ng27\n(S'Variable_Type'\n(I2\nttRp684\nsS'Elu 180'\np685\ng27\n(S'Variable_Type'\n(I2\nttRp686\nsS'heat 20'\np687\ng27\n(S'Variable_Type'\n(I2\nttRp688\nsS'Elu 240'\np689\ng27\n(S'Variable_Type'\n(I2\nttRp690\nsS'cdc15 150'\np691\ng27\n(S'Variable_Type'\n(I2\nttRp692\nsS'alpha 84'\np693\ng27\n(S'Variable_Type'\n(I2\nttRp694\nsS'cdc15 110'\np695\ng27\n(S'Variable_Type'\n(I2\nttRp696\nsS'cdc15 290'\np697\ng27\n(S'Variable_Type'\n(I2\nttRp698\nsS'cold 40'\np699\ng27\n(S'Variable_Type'\n(I2\nttRp700\nsS'cold 0'\np701\ng27\n(S'Variable_Type'\n(I2\nttRp702\nsS'alpha 112'\np703\ng27\n(S'Variable_Type'\n(I2\nttRp704\nsS'cdc15 270'\np705\ng27\n(S'Variable_Type'\n(I2\nttRp706\nsS'diau g'\np707\ng27\n(S'Variable_Type'\n(I2\nttRp708\nsS'cdc15 230'\np709\ng27\n(S'Variable_Type'\n(I2\nttRp710\nsS'spo 0'\np711\ng27\n(S'Variable_Type'\n(I2\nttRp712\nsS'spo 2'\np713\ng27\n(S'Variable_Type'\n(I2\nttRp714\nsS'spo 5'\np715\ng27\n(S'Variable_Type'\n(I2\nttRp716\nsS'cdc15 250'\np717\ng27\n(S'Variable_Type'\n(I2\nttRp718\nsS'spo 7'\np719\ng27\n(S'Variable_Type'\n(I2\nttRp720\nsS'Elu 120'\np721\ng27\n(S'Variable_Type'\n(I2\nttRp722\nsS'Elu 0'\np723\ng27\n(S'Variable_Type'\n(I2\nttRp724\nsS'cdc15 90'\np725\ng27\n(S'Variable_Type'\n(I2\nttRp726\nsS'Elu 300'\np727\ng27\n(S'Variable_Type'\n(I2\nttRp728\nsS'alpha 119'\np729\ng27\n(S'Variable_Type'\n(I2\nttRp730\nsS'alpha 35'\np731\ng27\n(S'Variable_Type'\n(I2\nttRp732\nsS'spo 9'\np733\ng27\n(S'Variable_Type'\n(I2\nttRp734\nsS'spo- early'\np735\ng27\n(S'Variable_Type'\n(I2\nttRp736\nsS'heat 10'\np737\ng27\n(S'Variable_Type'\n(I2\nttRp738\nsS'heat 0'\np739\ng27\n(S'Variable_Type'\n(I2\nttRp740\nsS'cdc15 210'\np741\ng27\n(S'Variable_Type'\n(I2\nttRp742\nsS'cdc15 190'\np743\ng27\n(S'Variable_Type'\n(I2\nttRp744\nsS'alpha 70'\np745\ng27\n(S'Variable_Type'\n(I2\nttRp746\nsS'cdc15 30'\np747\ng27\n(S'Variable_Type'\n(I2\nttRp748\nsS'dtt 60'\np749\ng27\n(S'Variable_Type'\n(I2\nttRp750\nsS'alpha 77'\np751\ng27\n(S'Variable_Type'\n(I2\nttRp752\nsS'alpha 21'\np753\ng27\n(S'Variable_Type'\n(I2\nttRp754\nssg15\n(dp755\nS'gene'\np756\ng27\n(S'Variable_Type'\n(I6\nttRp757\nssg17\n(dp758\ng73\n(lp759\nsg75\n(lp760\n(S'gene'\ng27\n(S'Variable_Type'\n(I6\nttRp761\ntp762\nasg77\n(lp763\nsg79\n(lp764\n(S'alpha 0'\ng27\n(S'Variable_Type'\n(I2\nttRp765\ntp766\na(S'alpha 7'\ng27\n(S'Variable_Type'\n(I2\nttRp767\ntp768\na(S'alpha 14'\ng27\n(S'Variable_Type'\n(I2\nttRp769\ntp770\na(S'alpha 21'\ng27\n(S'Variable_Type'\n(I2\nttRp771\ntp772\na(S'alpha 28'\ng27\n(S'Variable_Type'\n(I2\nttRp773\ntp774\na(S'alpha 35'\ng27\n(S'Variable_Type'\n(I2\nttRp775\ntp776\na(S'alpha 42'\ng27\n(S'Variable_Type'\n(I2\nttRp777\ntp778\na(S'alpha 49'\ng27\n(S'Variable_Type'\n(I2\nttRp779\ntp780\na(S'alpha 56'\ng27\n(S'Variable_Type'\n(I2\nttRp781\ntp782\na(S'alpha 63'\ng27\n(S'Variable_Type'\n(I2\nttRp783\ntp784\na(S'alpha 70'\ng27\n(S'Variable_Type'\n(I2\nttRp785\ntp786\na(S'alpha 77'\ng27\n(S'Variable_Type'\n(I2\nttRp787\ntp788\na(S'alpha 84'\ng27\n(S'Variable_Type'\n(I2\nttRp789\ntp790\na(S'alpha 91'\ng27\n(S'Variable_Type'\n(I2\nttRp791\ntp792\na(S'alpha 98'\ng27\n(S'Variable_Type'\n(I2\nttRp793\ntp794\na(S'alpha 105'\ng27\n(S'Variable_Type'\n(I2\nttRp795\ntp796\na(S'alpha 112'\ng27\n(S'Variable_Type'\n(I2\nttRp797\ntp798\na(S'alpha 119'\ng27\n(S'Variable_Type'\n(I2\nttRp799\ntp800\na(S'Elu 0'\ng27\n(S'Variable_Type'\n(I2\nttRp801\ntp802\na(S'Elu 30'\ng27\n(S'Variable_Type'\n(I2\nttRp803\ntp804\na(S'Elu 60'\ng27\n(S'Variable_Type'\n(I2\nttRp805\ntp806\na(S'Elu 90'\ng27\n(S'Variable_Type'\n(I2\nttRp807\ntp808\na(S'Elu 120'\ng27\n(S'Variable_Type'\n(I2\nttRp809\ntp810\na(S'Elu 150'\ng27\n(S'Variable_Type'\n(I2\nttRp811\ntp812\na(S'Elu 180'\ng27\n(S'Variable_Type'\n(I2\nttRp813\ntp814\na(S'Elu 210'\ng27\n(S'Variable_Type'\n(I2\nttRp815\ntp816\na(S'Elu 240'\ng27\n(S'Variable_Type'\n(I2\nttRp817\ntp818\na(S'Elu 270'\ng27\n(S'Variable_Type'\n(I2\nttRp819\ntp820\na(S'Elu 300'\ng27\n(S'Variable_Type'\n(I2\nttRp821\ntp822\na(S'Elu 330'\ng27\n(S'Variable_Type'\n(I2\nttRp823\ntp824\na(S'Elu 360'\ng27\n(S'Variable_Type'\n(I2\nttRp825\ntp826\na(S'Elu 390'\ng27\n(S'Variable_Type'\n(I2\nttRp827\ntp828\na(S'cdc15 10'\ng27\n(S'Variable_Type'\n(I2\nttRp829\ntp830\na(S'cdc15 30'\ng27\n(S'Variable_Type'\n(I2\nttRp831\ntp832\na(S'cdc15 50'\ng27\n(S'Variable_Type'\n(I2\nttRp833\ntp834\na(S'cdc15 70'\ng27\n(S'Variable_Type'\n(I2\nttRp835\ntp836\na(S'cdc15 90'\ng27\n(S'Variable_Type'\n(I2\nttRp837\ntp838\na(S'cdc15 110'\ng27\n(S'Variable_Type'\n(I2\nttRp839\ntp840\na(S'cdc15 130'\ng27\n(S'Variable_Type'\n(I2\nttRp841\ntp842\na(S'cdc15 150'\ng27\n(S'Variable_Type'\n(I2\nttRp843\ntp844\na(S'cdc15 170'\ng27\n(S'Variable_Type'\n(I2\nttRp845\ntp846\na(S'cdc15 190'\ng27\n(S'Variable_Type'\n(I2\nttRp847\ntp848\na(S'cdc15 210'\ng27\n(S'Variable_Type'\n(I2\nttRp849\ntp850\na(S'cdc15 230'\ng27\n(S'Variable_Type'\n(I2\nttRp851\ntp852\na(S'cdc15 250'\ng27\n(S'Variable_Type'\n(I2\nttRp853\ntp854\na(S'cdc15 270'\ng27\n(S'Variable_Type'\n(I2\nttRp855\ntp856\na(S'cdc15 290'\ng27\n(S'Variable_Type'\n(I2\nttRp857\ntp858\na(S'spo 0'\ng27\n(S'Variable_Type'\n(I2\nttRp859\ntp860\na(S'spo 2'\ng27\n(S'Variable_Type'\n(I2\nttRp861\ntp862\na(S'spo 5'\ng27\n(S'Variable_Type'\n(I2\nttRp863\ntp864\na(S'spo 7'\ng27\n(S'Variable_Type'\n(I2\nttRp865\ntp866\na(S'spo 9'\ng27\n(S'Variable_Type'\n(I2\nttRp867\ntp868\na(S'spo 11'\ng27\n(S'Variable_Type'\n(I2\nttRp869\ntp870\na(S'spo5 2'\ng27\n(S'Variable_Type'\n(I2\nttRp871\ntp872\na(S'spo5 7'\ng27\n(S'Variable_Type'\n(I2\nttRp873\ntp874\na(S'spo5 11'\ng27\n(S'Variable_Type'\n(I2\nttRp875\ntp876\na(S'spo- early'\ng27\n(S'Variable_Type'\n(I2\nttRp877\ntp878\na(S'spo- mid'\ng27\n(S'Variable_Type'\n(I2\nttRp879\ntp880\na(S'heat 0'\ng27\n(S'Variable_Type'\n(I2\nttRp881\ntp882\na(S'heat 10'\ng27\n(S'Variable_Type'\n(I2\nttRp883\ntp884\na(S'heat 20'\ng27\n(S'Variable_Type'\n(I2\nttRp885\ntp886\na(S'heat 40'\ng27\n(S'Variable_Type'\n(I2\nttRp887\ntp888\na(S'heat 80'\ng27\n(S'Variable_Type'\n(I2\nttRp889\ntp890\na(S'heat 160'\ng27\n(S'Variable_Type'\n(I2\nttRp891\ntp892\na(S'dtt 15'\ng27\n(S'Variable_Type'\n(I2\nttRp893\ntp894\na(S'dtt 30'\ng27\n(S'Variable_Type'\n(I2\nttRp895\ntp896\na(S'dtt 60'\ng27\n(S'Variable_Type'\n(I2\nttRp897\ntp898\na(S'dtt 120'\ng27\n(S'Variable_Type'\n(I2\nttRp899\ntp900\na(S'cold 0'\ng27\n(S'Variable_Type'\n(I2\nttRp901\ntp902\na(S'cold 20'\ng27\n(S'Variable_Type'\n(I2\nttRp903\ntp904\na(S'cold 40'\ng27\n(S'Variable_Type'\n(I2\nttRp905\ntp906\na(S'cold 160'\ng27\n(S'Variable_Type'\n(I2\nttRp907\ntp908\na(S'diau a'\ng27\n(S'Variable_Type'\n(I2\nttRp909\ntp910\na(S'diau b'\ng27\n(S'Variable_Type'\n(I2\nttRp911\ntp912\na(S'diau c'\ng27\n(S'Variable_Type'\n(I2\nttRp913\ntp914\na(S'diau d'\ng27\n(S'Variable_Type'\n(I2\nttRp915\ntp916\na(S'diau e'\ng27\n(S'Variable_Type'\n(I2\nttRp917\ntp918\na(S'diau f'\ng27\n(S'Variable_Type'\n(I2\nttRp919\ntp920\na(S'diau g'\ng27\n(S'Variable_Type'\n(I2\nttRp921\ntp922\nasg87\n(lp923\n(S'function'\ng27\n(S'Variable_Type'\n(I1\nttRp924\ntp925\nasg91\n(lp926\nssg40\nF1316702542.576169\nsba(iOWContexts\nContext\np927\n(dp928\ng53\n(lp929\nS'orderedDomain'\np930\nasg41\n(dp931\nS'CRIM'\np932\ng27\n(S'Variable_Type'\n(I2\nttRp933\nsS'ZN'\np934\ng27\n(S'Variable_Type'\n(I2\nttRp935\nsS'B'\ng27\n(S'Variable_Type'\n(I2\nttRp936\nsS'LSTAT'\np937\ng27\n(S'Variable_Type'\n(I2\nttRp938\nsS'AGE'\np939\ng27\n(S'Variable_Type'\n(I2\nttRp940\nsS'TAX'\np941\ng27\n(S'Variable_Type'\n(I2\nttRp942\nsS'RAD'\np943\ng27\n(S'Variable_Type'\n(I2\nttRp944\nsS'CHAS'\np945\ng27\n(S'Variable_Type'\n(I2\nttRp946\nsS'NOX'\np947\ng27\n(S'Variable_Type'\n(I2\nttRp948\nsS'RM'\np949\ng27\n(S'Variable_Type'\n(I2\nttRp950\nsS'MEDV'\np951\ng27\n(S'Variable_Type'\n(I2\nttRp952\nsS'INDUS'\np953\ng27\n(S'Variable_Type'\n(I2\nttRp954\nsS'PTRATIO'\np955\ng27\n(S'Variable_Type'\n(I2\nttRp956\nsS'DIS'\np957\ng27\n(S'Variable_Type'\n(I2\nttRp958\nssg15\n(dp959\nsg17\n(dp960\nS'selectedMeta'\np961\n(lp962\nsS'metaAttributes'\np963\n(lp964\nsS'selectedChosen'\np965\n(lp966\nsS'chosenAttributes'\np967\n(lp968\n(S'CRIM'\ng27\n(S'Variable_Type'\n(I2\nttRp969\ntp970\na(S'ZN'\ng27\n(S'Variable_Type'\n(I2\nttRp971\ntp972\na(S'INDUS'\ng27\n(S'Variable_Type'\n(I2\nttRp973\ntp974\na(S'CHAS'\ng27\n(S'Variable_Type'\n(I2\nttRp975\ntp976\na(S'NOX'\ng27\n(S'Variable_Type'\n(I2\nttRp977\ntp978\na(S'RM'\ng27\n(S'Variable_Type'\n(I2\nttRp979\ntp980\na(S'AGE'\ng27\n(S'Variable_Type'\n(I2\nttRp981\ntp982\na(S'DIS'\ng27\n(S'Variable_Type'\n(I2\nttRp983\ntp984\na(S'RAD'\ng27\n(S'Variable_Type'\n(I2\nttRp985\ntp986\na(S'TAX'\ng27\n(S'Variable_Type'\n(I2\nttRp987\ntp988\na(S'PTRATIO'\ng27\n(S'Variable_Type'\n(I2\nttRp989\ntp990\na(S'B'\ng27\n(S'Variable_Type'\n(I2\nttRp991\ntp992\na(S'LSTAT'\ng27\n(S'Variable_Type'\n(I2\nttRp993\ntp994\nasS'classAttribute'\np995\n(lp996\n(S'MEDV'\ng27\n(S'Variable_Type'\n(I2\nttRp997\ntp998\nasS'selectedClass'\np999\n(lp1000\nssg40\nF1314964468.9692781\nsba(iOWContexts\nContext\np1001\n(dp1002\ng53\n(lp1003\nS'orderedDomain'\np1004\nasg41\n(dp1005\nS'CRIM'\np1006\ng27\n(S'Variable_Type'\n(I2\nttRp1007\nsS'ZN'\np1008\ng27\n(S'Variable_Type'\n(I2\nttRp1009\nsS'B'\ng27\n(S'Variable_Type'\n(I2\nttRp1010\nsS'LSTAT'\np1011\ng27\n(S'Variable_Type'\n(I2\nttRp1012\nsS'AGE'\np1013\ng27\n(S'Variable_Type'\n(I2\nttRp1014\nsS'TAX'\np1015\ng27\n(S'Variable_Type'\n(I2\nttRp1016\nsS'RAD'\np1017\ng27\n(S'Variable_Type'\n(I2\nttRp1018\nsS'CHAS'\np1019\ng27\n(S'Variable_Type'\n(I2\nttRp1020\nsS'NOX'\np1021\ng27\n(S'Variable_Type'\n(I2\nttRp1022\nsS'RM'\np1023\ng27\n(S'Variable_Type'\n(I2\nttRp1024\nsS'MEDV'\np1025\ng27\n(S'Variable_Type'\n(I2\nttRp1026\nsS'INDUS'\np1027\ng27\n(S'Variable_Type'\n(I2\nttRp1028\nsS'PTRATIO'\np1029\ng27\n(S'Variable_Type'\n(I2\nttRp1030\nsS'DIS'\np1031\ng27\n(S'Variable_Type'\n(I2\nttRp1032\nssg15\n(dp1033\nsg17\n(dp1034\nS'selectedMeta'\np1035\n(lp1036\nsS'metaAttributes'\np1037\n(lp1038\nsS'selectedChosen'\np1039\n(lp1040\nsS'chosenAttributes'\np1041\n(lp1042\n(S'CRIM'\ng27\n(S'Variable_Type'\n(I2\nttRp1043\ntp1044\na(S'ZN'\ng27\n(S'Variable_Type'\n(I2\nttRp1045\ntp1046\na(S'INDUS'\ng27\n(S'Variable_Type'\n(I2\nttRp1047\ntp1048\na(S'CHAS'\ng27\n(S'Variable_Type'\n(I2\nttRp1049\ntp1050\na(S'NOX'\ng27\n(S'Variable_Type'\n(I2\nttRp1051\ntp1052\na(S'RM'\ng27\n(S'Variable_Type'\n(I2\nttRp1053\ntp1054\na(S'AGE'\ng27\n(S'Variable_Type'\n(I2\nttRp1055\ntp1056\na(S'DIS'\ng27\n(S'Variable_Type'\n(I2\nttRp1057\ntp1058\na(S'RAD'\ng27\n(S'Variable_Type'\n(I2\nttRp1059\ntp1060\na(S'TAX'\ng27\n(S'Variable_Type'\n(I2\nttRp1061\ntp1062\na(S'PTRATIO'\ng27\n(S'Variable_Type'\n(I2\nttRp1063\ntp1064\na(S'B'\ng27\n(S'Variable_Type'\n(I2\nttRp1065\ntp1066\na(S'LSTAT'\ng27\n(S'Variable_Type'\n(I2\nttRp1067\ntp1068\nasS'classAttribute'\np1069\n(lp1070\n(S'MEDV'\ng27\n(S'Variable_Type'\n(I2\nttRp1071\ntp1072\nasS'selectedClass'\np1073\n(lp1074\nssg40\nF1314964468.9692781\nsba(iOWContexts\nContext\np1075\n(dp1076\ng17\n(dp1077\nS'selectedMeta'\np1078\n(lp1079\nsS'metaAttributes'\np1080\n(lp1081\nsS'selectedChosen'\np1082\n(lp1083\nsS'chosenAttributes'\np1084\n(lp1085\n(S'cylinders'\ng27\n(S'Variable_Type'\n(I1\nttRp1086\ntp1087\na(S'displacement'\ng27\n(S'Variable_Type'\n(I2\nttRp1088\ntp1089\na(S'horsepower'\ng27\n(S'Variable_Type'\n(I2\nttRp1090\ntp1091\na(S'weight'\ng27\n(S'Variable_Type'\n(I2\nttRp1092\ntp1093\na(S'acceleration'\ng27\n(S'Variable_Type'\n(I2\nttRp1094\ntp1095\na(S'model_year'\ng27\n(S'Variable_Type'\n(I1\nttRp1096\ntp1097\na(S'origin'\ng27\n(S'Variable_Type'\n(I1\nttRp1098\ntp1099\na(S'car_name'\ng27\n(S'Variable_Type'\n(I1\nttRp1100\ntp1101\nasS'classAttribute'\np1102\n(lp1103\n(S'mpg'\ng27\n(S'Variable_Type'\n(I2\nttRp1104\ntp1105\nasS'selectedClass'\np1106\n(lp1107\nssg41\n(dp1108\nS'acceleration'\np1109\ng27\n(S'Variable_Type'\n(I2\nttRp1110\nsS'origin'\np1111\ng27\n(S'Variable_Type'\n(I1\nttRp1112\nsS'model_year'\np1113\ng27\n(S'Variable_Type'\n(I1\nttRp1114\nsS'cylinders'\np1115\ng27\n(S'Variable_Type'\n(I1\nttRp1116\nsS'weight'\np1117\ng27\n(S'Variable_Type'\n(I2\nttRp1118\nsS'mpg'\np1119\ng27\n(S'Variable_Type'\n(I2\nttRp1120\nsS'displacement'\np1121\ng27\n(S'Variable_Type'\n(I2\nttRp1122\nsS'car_name'\np1123\ng27\n(S'Variable_Type'\n(I1\nttRp1124\nsS'horsepower'\np1125\ng27\n(S'Variable_Type'\n(I2\nttRp1126\nssg15\n(dp1127\nsg53\n(lp1128\nS'orderedDomain'\np1129\nasg40\nF1314198423.243753\nsba(iOWContexts\nContext\np1130\n(dp1131\ng17\n(dp1132\nS'selectedMeta'\np1133\n(lp1134\nsS'metaAttributes'\np1135\n(lp1136\nsS'selectedChosen'\np1137\n(lp1138\nsS'chosenAttributes'\np1139\n(lp1140\n(S'cylinders'\ng27\n(S'Variable_Type'\n(I1\nttRp1141\ntp1142\na(S'displacement'\ng27\n(S'Variable_Type'\n(I2\nttRp1143\ntp1144\na(S'horsepower'\ng27\n(S'Variable_Type'\n(I2\nttRp1145\ntp1146\na(S'weight'\ng27\n(S'Variable_Type'\n(I2\nttRp1147\ntp1148\na(S'acceleration'\ng27\n(S'Variable_Type'\n(I2\nttRp1149\ntp1150\na(S'model_year'\ng27\n(S'Variable_Type'\n(I1\nttRp1151\ntp1152\na(S'origin'\ng27\n(S'Variable_Type'\n(I1\nttRp1153\ntp1154\na(S'car_name'\ng27\n(S'Variable_Type'\n(I1\nttRp1155\ntp1156\nasS'classAttribute'\np1157\n(lp1158\n(S'mpg'\ng27\n(S'Variable_Type'\n(I2\nttRp1159\ntp1160\nasS'selectedClass'\np1161\n(lp1162\nssg41\n(dp1163\nS'acceleration'\np1164\ng27\n(S'Variable_Type'\n(I2\nttRp1165\nsS'origin'\np1166\ng27\n(S'Variable_Type'\n(I1\nttRp1167\nsS'model_year'\np1168\ng27\n(S'Variable_Type'\n(I1\nttRp1169\nsS'cylinders'\np1170\ng27\n(S'Variable_Type'\n(I1\nttRp1171\nsS'weight'\np1172\ng27\n(S'Variable_Type'\n(I2\nttRp1173\nsS'mpg'\np1174\ng27\n(S'Variable_Type'\n(I2\nttRp1175\nsS'displacement'\np1176\ng27\n(S'Variable_Type'\n(I2\nttRp1177\nsS'car_name'\np1178\ng27\n(S'Variable_Type'\n(I1\nttRp1179\nsS'horsepower'\np1180\ng27\n(S'Variable_Type'\n(I2\nttRp1181\nssg15\n(dp1182\nsg53\n(lp1183\nS'orderedDomain'\np1184\nasg40\nF1314198423.243753\nsba(iOWContexts\nContext\np1185\n(dp1186\ng17\n(dp1187\ng1078\n(lp1188\nsg1080\n(lp1189\nsg1082\n(lp1190\nsg1084\n(lp1191\n(S'cylinders'\ng27\n(S'Variable_Type'\n(I1\nttRp1192\ntp1193\na(S'displacement'\ng27\n(S'Variable_Type'\n(I2\nttRp1194\ntp1195\na(S'horsepower'\ng27\n(S'Variable_Type'\n(I2\nttRp1196\ntp1197\na(S'weight'\ng27\n(S'Variable_Type'\n(I2\nttRp1198\ntp1199\na(S'acceleration'\ng27\n(S'Variable_Type'\n(I2\nttRp1200\ntp1201\na(S'model_year'\ng27\n(S'Variable_Type'\n(I1\nttRp1202\ntp1203\na(S'origin'\ng27\n(S'Variable_Type'\n(I1\nttRp1204\ntp1205\na(S'car_name'\ng27\n(S'Variable_Type'\n(I1\nttRp1206\ntp1207\nasg1102\n(lp1208\n(S'mpg'\ng27\n(S'Variable_Type'\n(I2\nttRp1209\ntp1210\nasg1106\n(lp1211\nssg41\n(dp1212\nS'acceleration'\np1213\ng27\n(S'Variable_Type'\n(I2\nttRp1214\nsS'origin'\np1215\ng27\n(S'Variable_Type'\n(I1\nttRp1216\nsS'model_year'\np1217\ng27\n(S'Variable_Type'\n(I1\nttRp1218\nsS'cylinders'\np1219\ng27\n(S'Variable_Type'\n(I1\nttRp1220\nsS'weight'\np1221\ng27\n(S'Variable_Type'\n(I2\nttRp1222\nsS'mpg'\np1223\ng27\n(S'Variable_Type'\n(I2\nttRp1224\nsS'displacement'\np1225\ng27\n(S'Variable_Type'\n(I2\nttRp1226\nsS'car_name'\np1227\ng27\n(S'Variable_Type'\n(I1\nttRp1228\nsS'horsepower'\np1229\ng27\n(S'Variable_Type'\n(I2\nttRp1230\nssg15\n(dp1231\nsg53\n(lp1232\nS'orderedDomain'\np1233\nasg40\nF1314198406.895174\nsba(iOWContexts\nContext\np1234\n(dp1235\ng17\n(dp1236\ng1133\n(lp1237\nsg1135\n(lp1238\nsg1137\n(lp1239\nsg1139\n(lp1240\n(S'cylinders'\ng27\n(S'Variable_Type'\n(I1\nttRp1241\ntp1242\na(S'displacement'\ng27\n(S'Variable_Type'\n(I2\nttRp1243\ntp1244\na(S'horsepower'\ng27\n(S'Variable_Type'\n(I2\nttRp1245\ntp1246\na(S'weight'\ng27\n(S'Variable_Type'\n(I2\nttRp1247\ntp1248\na(S'acceleration'\ng27\n(S'Variable_Type'\n(I2\nttRp1249\ntp1250\na(S'model_year'\ng27\n(S'Variable_Type'\n(I1\nttRp1251\ntp1252\na(S'origin'\ng27\n(S'Variable_Type'\n(I1\nttRp1253\ntp1254\na(S'car_name'\ng27\n(S'Variable_Type'\n(I1\nttRp1255\ntp1256\nasg1157\n(lp1257\n(S'mpg'\ng27\n(S'Variable_Type'\n(I2\nttRp1258\ntp1259\nasg1161\n(lp1260\nssg41\n(dp1261\nS'acceleration'\np1262\ng27\n(S'Variable_Type'\n(I2\nttRp1263\nsS'origin'\np1264\ng27\n(S'Variable_Type'\n(I1\nttRp1265\nsS'model_year'\np1266\ng27\n(S'Variable_Type'\n(I1\nttRp1267\nsS'cylinders'\np1268\ng27\n(S'Variable_Type'\n(I1\nttRp1269\nsS'weight'\np1270\ng27\n(S'Variable_Type'\n(I2\nttRp1271\nsS'mpg'\np1272\ng27\n(S'Variable_Type'\n(I2\nttRp1273\nsS'displacement'\np1274\ng27\n(S'Variable_Type'\n(I2\nttRp1275\nsS'car_name'\np1276\ng27\n(S'Variable_Type'\n(I1\nttRp1277\nsS'horsepower'\np1278\ng27\n(S'Variable_Type'\n(I2\nttRp1279\nssg15\n(dp1280\nsg53\n(lp1281\nS'orderedDomain'\np1282\nasg40\nF1314198406.895174\nsba(iOWContexts\nContext\np1283\n(dp1284\ng17\n(dp1285\nS'selectedMeta'\np1286\n(lp1287\nsS'metaAttributes'\np1288\n(lp1289\nsS'selectedChosen'\np1290\n(lp1291\nI4\nasS'chosenAttributes'\np1292\n(lp1293\n(S'sepal length'\ng27\n(S'Variable_Type'\n(I2\nttRp1294\ntp1295\na(S'sepal width'\ng27\n(S'Variable_Type'\n(I2\nttRp1296\ntp1297\na(S'petal length'\ng27\n(S'Variable_Type'\n(I2\nttRp1298\ntp1299\na(S'petal width'\ng27\n(S'Variable_Type'\n(I2\nttRp1300\ntp1301\na(S'iris'\ng27\n(S'Variable_Type'\n(I1\nttRp1302\ntp1303\nasS'classAttribute'\np1304\n(lp1305\nsS'selectedClass'\np1306\n(lp1307\nssg41\n(dp1308\nS'petal length'\np1309\ng27\n(S'Variable_Type'\n(I2\nttRp1310\nsS'petal width'\np1311\ng27\n(S'Variable_Type'\n(I2\nttRp1312\nsS'sepal width'\np1313\ng27\n(S'Variable_Type'\n(I2\nttRp1314\nsS'sepal length'\np1315\ng27\n(S'Variable_Type'\n(I2\nttRp1316\nsS'iris'\np1317\ng27\n(S'Variable_Type'\n(I1\nttRp1318\nssg15\n(dp1319\nsg53\n(lp1320\nS'orderedDomain'\np1321\nasg40\nF1314197933.4470849\nsba(iOWContexts\nContext\np1322\n(dp1323\ng17\n(dp1324\nS'selectedMeta'\np1325\n(lp1326\nsS'metaAttributes'\np1327\n(lp1328\nsS'selectedChosen'\np1329\n(lp1330\nI4\nasS'chosenAttributes'\np1331\n(lp1332\n(S'sepal length'\ng27\n(S'Variable_Type'\n(I2\nttRp1333\ntp1334\na(S'sepal width'\ng27\n(S'Variable_Type'\n(I2\nttRp1335\ntp1336\na(S'petal length'\ng27\n(S'Variable_Type'\n(I2\nttRp1337\ntp1338\na(S'petal width'\ng27\n(S'Variable_Type'\n(I2\nttRp1339\ntp1340\na(S'iris'\ng27\n(S'Variable_Type'\n(I1\nttRp1341\ntp1342\nasS'classAttribute'\np1343\n(lp1344\nsS'selectedClass'\np1345\n(lp1346\nssg41\n(dp1347\nS'petal length'\np1348\ng27\n(S'Variable_Type'\n(I2\nttRp1349\nsS'petal width'\np1350\ng27\n(S'Variable_Type'\n(I2\nttRp1351\nsS'sepal width'\np1352\ng27\n(S'Variable_Type'\n(I2\nttRp1353\nsS'sepal length'\np1354\ng27\n(S'Variable_Type'\n(I2\nttRp1355\nsS'iris'\np1356\ng27\n(S'Variable_Type'\n(I1\nttRp1357\nssg15\n(dp1358\nsg53\n(lp1359\nS'orderedDomain'\np1360\nasg40\nF1314197933.4470849\nsba(iOWContexts\nContext\np1361\n(dp1362\ng53\n(lp1363\nS'orderedDomain'\np1364\nasg41\n(dp1365\nS'A11'\np1366\ng27\n(S'Variable_Type'\n(I2\nttRp1367\nsS'A10'\np1368\ng27\n(S'Variable_Type'\n(I2\nttRp1369\nsS'A12'\np1370\ng27\n(S'Variable_Type'\n(I2\nttRp1371\nsS'A1'\np1372\ng27\n(S'Variable_Type'\n(I2\nttRp1373\nsS'A3'\np1374\ng27\n(S'Variable_Type'\n(I2\nttRp1375\nsS'A2'\np1376\ng27\n(S'Variable_Type'\n(I2\nttRp1377\nsS'A5'\np1378\ng27\n(S'Variable_Type'\n(I2\nttRp1379\nsS'A4'\np1380\ng27\n(S'Variable_Type'\n(I2\nttRp1381\nsS'A7'\np1382\ng27\n(S'Variable_Type'\n(I2\nttRp1383\nsS'A6'\np1384\ng27\n(S'Variable_Type'\n(I2\nttRp1385\nsS'A9'\np1386\ng27\n(S'Variable_Type'\n(I2\nttRp1387\nsS'A8'\np1388\ng27\n(S'Variable_Type'\n(I2\nttRp1389\nssg15\n(dp1390\nsg17\n(dp1391\nS'selectedMeta'\np1392\n(lp1393\nsS'metaAttributes'\np1394\n(lp1395\nsS'selectedChosen'\np1396\n(lp1397\nsS'chosenAttributes'\np1398\n(lp1399\n(S'A1'\ng27\n(S'Variable_Type'\n(I2\nttRp1400\ntp1401\na(S'A2'\ng27\n(S'Variable_Type'\n(I2\nttRp1402\ntp1403\na(S'A3'\ng27\n(S'Variable_Type'\n(I2\nttRp1404\ntp1405\na(S'A4'\ng27\n(S'Variable_Type'\n(I2\nttRp1406\ntp1407\na(S'A5'\ng27\n(S'Variable_Type'\n(I2\nttRp1408\ntp1409\na(S'A6'\ng27\n(S'Variable_Type'\n(I2\nttRp1410\ntp1411\na(S'A7'\ng27\n(S'Variable_Type'\n(I2\nttRp1412\ntp1413\na(S'A8'\ng27\n(S'Variable_Type'\n(I2\nttRp1414\ntp1415\na(S'A9'\ng27\n(S'Variable_Type'\n(I2\nttRp1416\ntp1417\na(S'A10'\ng27\n(S'Variable_Type'\n(I2\nttRp1418\ntp1419\na(S'A11'\ng27\n(S'Variable_Type'\n(I2\nttRp1420\ntp1421\nasS'classAttribute'\np1422\n(lp1423\n(S'A12'\ng27\n(S'Variable_Type'\n(I2\nttRp1424\ntp1425\nasS'selectedClass'\np1426\n(lp1427\nssg40\nF1312967869.2381451\nsba(iOWContexts\nContext\np1428\n(dp1429\ng17\n(dp1430\nS'selectedMeta'\np1431\n(lp1432\nsS'metaAttributes'\np1433\n(lp1434\nsS'selectedChosen'\np1435\n(lp1436\nsS'chosenAttributes'\np1437\n(lp1438\n(S'A1'\ng27\n(S'Variable_Type'\n(I2\nttRp1439\ntp1440\na(S'A2'\ng27\n(S'Variable_Type'\n(I2\nttRp1441\ntp1442\na(S'A3'\ng27\n(S'Variable_Type'\n(I2\nttRp1443\ntp1444\na(S'A4'\ng27\n(S'Variable_Type'\n(I2\nttRp1445\ntp1446\na(S'A5'\ng27\n(S'Variable_Type'\n(I2\nttRp1447\ntp1448\na(S'A6'\ng27\n(S'Variable_Type'\n(I2\nttRp1449\ntp1450\na(S'A7'\ng27\n(S'Variable_Type'\n(I2\nttRp1451\ntp1452\na(S'A8'\ng27\n(S'Variable_Type'\n(I2\nttRp1453\ntp1454\na(S'A9'\ng27\n(S'Variable_Type'\n(I2\nttRp1455\ntp1456\na(S'A10'\ng27\n(S'Variable_Type'\n(I2\nttRp1457\ntp1458\na(S'A11'\ng27\n(S'Variable_Type'\n(I2\nttRp1459\ntp1460\nasS'classAttribute'\np1461\n(lp1462\n(S'A12'\ng27\n(S'Variable_Type'\n(I2\nttRp1463\ntp1464\nasS'selectedClass'\np1465\n(lp1466\nssg41\n(dp1467\nS'A11'\np1468\ng27\n(S'Variable_Type'\n(I2\nttRp1469\nsS'A10'\np1470\ng27\n(S'Variable_Type'\n(I2\nttRp1471\nsS'A12'\np1472\ng27\n(S'Variable_Type'\n(I2\nttRp1473\nsS'A1'\np1474\ng27\n(S'Variable_Type'\n(I2\nttRp1475\nsS'A3'\np1476\ng27\n(S'Variable_Type'\n(I2\nttRp1477\nsS'A2'\np1478\ng27\n(S'Variable_Type'\n(I2\nttRp1479\nsS'A5'\np1480\ng27\n(S'Variable_Type'\n(I2\nttRp1481\nsS'A4'\np1482\ng27\n(S'Variable_Type'\n(I2\nttRp1483\nsS'A7'\np1484\ng27\n(S'Variable_Type'\n(I2\nttRp1485\nsS'A6'\np1486\ng27\n(S'Variable_Type'\n(I2\nttRp1487\nsS'A9'\np1488\ng27\n(S'Variable_Type'\n(I2\nttRp1489\nsS'A8'\np1490\ng27\n(S'Variable_Type'\n(I2\nttRp1491\nssg15\n(dp1492\nsg53\n(lp1493\nS'orderedDomain'\np1494\nasg40\nF1312967869.2381451\nsba(iOWContexts\nContext\np1495\n(dp1496\ng53\n(lp1497\nS'orderedDomain'\np1498\nasg41\n(dp1499\nS'A11'\np1500\ng27\n(S'Variable_Type'\n(I2\nttRp1501\nsS'A10'\np1502\ng27\n(S'Variable_Type'\n(I2\nttRp1503\nsS'A12'\np1504\ng27\n(S'Variable_Type'\n(I2\nttRp1505\nsS'A1'\np1506\ng27\n(S'Variable_Type'\n(I2\nttRp1507\nsS'A3'\np1508\ng27\n(S'Variable_Type'\n(I2\nttRp1509\nsS'A2'\np1510\ng27\n(S'Variable_Type'\n(I2\nttRp1511\nsS'A5'\np1512\ng27\n(S'Variable_Type'\n(I2\nttRp1513\nsS'A4'\np1514\ng27\n(S'Variable_Type'\n(I2\nttRp1515\nsS'A7'\np1516\ng27\n(S'Variable_Type'\n(I2\nttRp1517\nsS'A6'\np1518\ng27\n(S'Variable_Type'\n(I2\nttRp1519\nsS'A9'\np1520\ng27\n(S'Variable_Type'\n(I2\nttRp1521\nsS'A8'\np1522\ng27\n(S'Variable_Type'\n(I2\nttRp1523\nssg15\n(dp1524\nsg17\n(dp1525\nS'selectedMeta'\np1526\n(lp1527\nsS'metaAttributes'\np1528\n(lp1529\nsS'selectedChosen'\np1530\n(lp1531\nsS'chosenAttributes'\np1532\n(lp1533\n(S'A1'\ng27\n(S'Variable_Type'\n(I2\nttRp1534\ntp1535\na(S'A2'\ng27\n(S'Variable_Type'\n(I2\nttRp1536\ntp1537\na(S'A3'\ng27\n(S'Variable_Type'\n(I2\nttRp1538\ntp1539\na(S'A4'\ng27\n(S'Variable_Type'\n(I2\nttRp1540\ntp1541\na(S'A5'\ng27\n(S'Variable_Type'\n(I2\nttRp1542\ntp1543\na(S'A6'\ng27\n(S'Variable_Type'\n(I2\nttRp1544\ntp1545\na(S'A7'\ng27\n(S'Variable_Type'\n(I2\nttRp1546\ntp1547\na(S'A8'\ng27\n(S'Variable_Type'\n(I2\nttRp1548\ntp1549\na(S'A9'\ng27\n(S'Variable_Type'\n(I2\nttRp1550\ntp1551\na(S'A10'\ng27\n(S'Variable_Type'\n(I2\nttRp1552\ntp1553\na(S'A11'\ng27\n(S'Variable_Type'\n(I2\nttRp1554\ntp1555\nasS'classAttribute'\np1556\n(lp1557\n(S'A12'\ng27\n(S'Variable_Type'\n(I2\nttRp1558\ntp1559\nasS'selectedClass'\np1560\n(lp1561\nssg40\nF1312967869.2381451\nsba(iOWContexts\nContext\np1562\n(dp1563\ng17\n(dp1564\nS'selectedMeta'\np1565\n(lp1566\nsS'metaAttributes'\np1567\n(lp1568\nsS'selectedChosen'\np1569\n(lp1570\nsS'chosenAttributes'\np1571\n(lp1572\n(S'A1'\ng27\n(S'Variable_Type'\n(I2\nttRp1573\ntp1574\na(S'A2'\ng27\n(S'Variable_Type'\n(I2\nttRp1575\ntp1576\na(S'A3'\ng27\n(S'Variable_Type'\n(I2\nttRp1577\ntp1578\na(S'A4'\ng27\n(S'Variable_Type'\n(I2\nttRp1579\ntp1580\na(S'A5'\ng27\n(S'Variable_Type'\n(I2\nttRp1581\ntp1582\na(S'A6'\ng27\n(S'Variable_Type'\n(I2\nttRp1583\ntp1584\na(S'A7'\ng27\n(S'Variable_Type'\n(I2\nttRp1585\ntp1586\na(S'A8'\ng27\n(S'Variable_Type'\n(I2\nttRp1587\ntp1588\na(S'A9'\ng27\n(S'Variable_Type'\n(I2\nttRp1589\ntp1590\na(S'A10'\ng27\n(S'Variable_Type'\n(I2\nttRp1591\ntp1592\na(S'A11'\ng27\n(S'Variable_Type'\n(I2\nttRp1593\ntp1594\nasS'classAttribute'\np1595\n(lp1596\n(S'A12'\ng27\n(S'Variable_Type'\n(I2\nttRp1597\ntp1598\nasS'selectedClass'\np1599\n(lp1600\nssg41\n(dp1601\nS'A11'\np1602\ng27\n(S'Variable_Type'\n(I2\nttRp1603\nsS'A10'\np1604\ng27\n(S'Variable_Type'\n(I2\nttRp1605\nsS'A12'\np1606\ng27\n(S'Variable_Type'\n(I2\nttRp1607\nsS'A1'\np1608\ng27\n(S'Variable_Type'\n(I2\nttRp1609\nsS'A3'\np1610\ng27\n(S'Variable_Type'\n(I2\nttRp1611\nsS'A2'\np1612\ng27\n(S'Variable_Type'\n(I2\nttRp1613\nsS'A5'\np1614\ng27\n(S'Variable_Type'\n(I2\nttRp1615\nsS'A4'\np1616\ng27\n(S'Variable_Type'\n(I2\nttRp1617\nsS'A7'\np1618\ng27\n(S'Variable_Type'\n(I2\nttRp1619\nsS'A6'\np1620\ng27\n(S'Variable_Type'\n(I2\nttRp1621\nsS'A9'\np1622\ng27\n(S'Variable_Type'\n(I2\nttRp1623\nsS'A8'\np1624\ng27\n(S'Variable_Type'\n(I2\nttRp1625\nssg15\n(dp1626\nsg53\n(lp1627\nS'orderedDomain'\np1628\nasg40\nF1312967869.2381451\nsbas."
p3
sS'Linear Projection 3D'
p4
S"(dp1\nS'autoSendSelection'\np2\nI1\nsS'widgetXPosition'\np3\nI283\nsS'widgetYPosition'\np4\nI154\nsS'graph.animate_plot'\np5\nI00\nsS'addProjectedPositions'\np6\nI0\nsS'graph.useAntialiasing'\np7\nNsS'widgetWidth'\np8\nI1000\nsS'graph.antialias_plot'\np9\nI00\nsS'selectedSchemaIndex'\np10\nI0\nsS'graph.point_width'\np11\nI6\nsS'showAllAttributes'\np12\nI0\nsS'graph.showFilledSymbols'\np13\nNsS'graph.alpha_value'\np14\nI255\nsS'graph.scaleFactor'\np15\nF1\nsS'savedWidgetGeometry'\np16\nS'\\x01\\xd9\\xd0\\xcb\\x00\\x01\\x00\\x00\\x00\\x00\\x01\\x1b\\x00\\x00\\x00\\x9a\\x00\\x00\\x05\\x02\\x00\\x00\\x03\\x07\\x00\\x00\\x01\\x1b\\x00\\x00\\x00\\xb0\\x00\\x00\\x05\\x02\\x00\\x00\\x03\\x07\\x00\\x00\\x00\\x00\\x00\\x00'\np17\nsS'graph.auto_adjust_performance'\np18\nI00\nsS'graph.squareGranularity'\np19\nI3\nsS'colorSettings'\np20\nNsS'valueScalingType'\np21\nI0\nsS'graph.jitterSize'\np22\nI10\nsS'dark_theme'\np23\nI00\nsS'graph.mouse_sensitivity'\np24\nI5\nsS'graph.useDifferentColors'\np25\nI1\nsS'graph.showProbabilities'\np26\nI0\nsS'graph.tooltipValue'\np27\nI0\nsS'widgetShown'\np28\nI0\nsS'graph.disable_animations_threshold'\np29\nNsS'graph.showLegend'\np30\nI01\nsS'graph.use_2d_symbols'\np31\nI00\nsS'localContextsVersion'\np32\n(I100\nI0\ntp33\nsS'localContexts'\np34\n(lp35\n(iOWContexts\nContext\np36\n(dp37\nS'metas'\np38\n(dp39\nsS'values'\np40\n(dp41\nS'shownAttributes'\np42\n(lp43\n(S'sepal length'\np44\ncorange\n__pickleLoaderNamedConstants\np45\n(S'Variable_Type'\n(I2\nttRp46\ntp47\na(S'sepal width'\np48\ng45\n(S'Variable_Type'\n(I2\nttRp49\ntp50\na(S'petal length'\np51\ng45\n(S'Variable_Type'\n(I2\nttRp52\ntp53\na(S'petal width'\np54\ng45\n(S'Variable_Type'\n(I2\nttRp55\ntp56\nasS'selectedShown'\np57\n(lp58\nssS'time'\np59\nF1315652054.6362219\nsS'attributes'\np60\n(dp61\nS'petal length'\np62\ng45\n(S'Variable_Type'\n(I2\nttRp63\nsS'petal width'\np64\ng45\n(S'Variable_Type'\n(I2\nttRp65\nsS'sepal width'\np66\ng45\n(S'Variable_Type'\n(I2\nttRp67\nsS'sepal length'\np68\ng45\n(S'Variable_Type'\n(I2\nttRp69\nssS'noCopy'\np70\n(lp71\nS'orderedDomain'\np72\nasba(iOWContexts\nContext\np73\n(dp74\ng70\n(lp75\ng72\nasg60\n(dp76\nS'sepal width'\np77\ng45\n(S'Variable_Type'\n(I2\nttRp78\nsS'petal width'\np79\ng45\n(S'Variable_Type'\n(I2\nttRp80\nsS'petal length'\np81\ng45\n(S'Variable_Type'\n(I2\nttRp82\nsS'sepal length'\np83\ng45\n(S'Variable_Type'\n(I2\nttRp84\nsS'iris'\np85\ng45\n(S'Variable_Type'\n(I1\nttRp86\nssg38\n(dp87\nsg40\n(dp88\nS'shownAttributes'\np89\n(lp90\n(g44\ng45\n(S'Variable_Type'\n(I2\nttRp91\ntp92\na(g48\ng45\n(S'Variable_Type'\n(I2\nttRp93\ntp94\na(g51\ng45\n(S'Variable_Type'\n(I2\nttRp95\ntp96\na(g54\ng45\n(S'Variable_Type'\n(I2\nttRp97\ntp98\nasS'selectedShown'\np99\n(lp100\nssg59\nF1315652054.6362219\nsba(iOWContexts\nContext\np101\n(dp102\ng70\n(lp103\nS'orderedDomain'\np104\nasg60\n(dp105\nS'ibh'\np106\ng45\n(S'Variable_Type'\n(I2\nttRp107\nsS'temp'\np108\ng45\n(S'Variable_Type'\n(I2\nttRp109\nsS'vh'\np110\ng45\n(S'Variable_Type'\n(I2\nttRp111\nsS'ibt'\np112\ng45\n(S'Variable_Type'\n(I2\nttRp113\nsS'humidity'\np114\ng45\n(S'Variable_Type'\n(I2\nttRp115\nsS'dpg'\np116\ng45\n(S'Variable_Type'\n(I2\nttRp117\nsS'vis'\np118\ng45\n(S'Variable_Type'\n(I2\nttRp119\nsS'doy'\np120\ng45\n(S'Variable_Type'\n(I2\nttRp121\nsS'O3'\np122\ng45\n(S'Variable_Type'\n(I2\nttRp123\nsS'wind'\np124\ng45\n(S'Variable_Type'\n(I2\nttRp125\nssg38\n(dp126\nsg40\n(dp127\ng89\n(lp128\n(S'vh'\ng45\n(S'Variable_Type'\n(I2\nttRp129\ntp130\na(S'wind'\ng45\n(S'Variable_Type'\n(I2\nttRp131\ntp132\na(S'humidity'\ng45\n(S'Variable_Type'\n(I2\nttRp133\ntp134\na(S'temp'\ng45\n(S'Variable_Type'\n(I2\nttRp135\ntp136\nasg99\n(lp137\nssg59\nF1315651992.0188241\nsbasS'graph.spaceBetweenCells'\np138\nI1\nsS'toolbarSelection'\np139\nI0\nsS'graph.animate_points'\np140\nI00\nsS'graph.showValueLines'\np141\nI0\nsS'graph.tooltipKind'\np142\nI0\nsS'graph.useDifferentSymbols'\np143\nI0\nsS'widgetHeight'\np144\nI600\ns."
p5
sS'Data Sampler'
p6
S"(dp1\nS'CVFolds'\np2\nI10\nsS'widgetXPosition'\np3\nI410\nsS'widgetYPosition'\np4\nI269\nsS'LOO'\np5\nI1\nsS'widgetWidth'\np6\nI325\nsS'selPercentage'\np7\nI30\nsS'Repeat'\np8\nI0\nsS'RandomSeed'\np9\nI1\nsS'pGroups'\np10\n(lp11\nF0.10000000000000001\naF0.25\naF0.5\nasS'widgetHeight'\np12\nI623\nsS'SelectType'\np13\nI0\nsS'savedWidgetGeometry'\np14\nS'\\x01\\xd9\\xd0\\xcb\\x00\\x01\\x00\\x00\\x00\\x00\\x01\\x9a\\x00\\x00\\x01\\r\\x00\\x00\\x02\\xde\\x00\\x00\\x03\\x91\\x00\\x00\\x01\\x9a\\x00\\x00\\x01#\\x00\\x00\\x02\\xde\\x00\\x00\\x03\\x91\\x00\\x00\\x00\\x00\\x00\\x00'\np15\nsS'nGroups'\np16\nI3\nsS'widgetShown'\np17\nI0\nsS'GroupSeed'\np18\nI1\nsS'Stratified'\np19\nI1\nsS'outFold'\np20\nI1\nsS'useCases'\np21\nI01\nsS'localContextsVersion'\np22\n(I100\nI0\ntp23\nsS'localContexts'\np24\n(lp25\n(iOWContexts\nContext\np26\n(dp27\nS'metas'\np28\n(dp29\nsS'values'\np30\n(dp31\nS'nCases'\np32\n(I20\nI-2\ntp33\nsg7\n(I30\nI-2\ntp34\nssS'time'\np35\nF1317805368.779074\nsS'attributes'\np36\n(dp37\nS'petal length'\np38\ncorange\n__pickleLoaderNamedConstants\np39\n(S'Variable_Type'\n(I2\nttRp40\nsS'petal width'\np41\ng39\n(S'Variable_Type'\n(I2\nttRp42\nsS'sepal width'\np43\ng39\n(S'Variable_Type'\n(I2\nttRp44\nsS'sepal length'\np45\ng39\n(S'Variable_Type'\n(I2\nttRp46\nsS'iris'\np47\ng39\n(S'Variable_Type'\n(I1\nttRp48\nssS'noCopy'\np49\n(lp50\nS'orderedDomain'\np51\nasba(iOWContexts\nContext\np52\n(dp53\ng49\n(lp54\nS'orderedDomain'\np55\nasg36\n(dp56\nS'GSM17218'\np57\ng39\n(S'Variable_Type'\n(I2\nttRp58\nsS'GSM17219'\np59\ng39\n(S'Variable_Type'\n(I2\nttRp60\nsS'GSM17223'\np61\ng39\n(S'Variable_Type'\n(I2\nttRp62\nsS'GSM17222'\np63\ng39\n(S'Variable_Type'\n(I2\nttRp64\nsS'GSM17225'\np65\ng39\n(S'Variable_Type'\n(I2\nttRp66\nsS'GSM17224'\np67\ng39\n(S'Variable_Type'\n(I2\nttRp68\nsS'GSM17220'\np69\ng39\n(S'Variable_Type'\n(I2\nttRp70\nsS'GSM17216'\np71\ng39\n(S'Variable_Type'\n(I2\nttRp72\nsS'GSM17217'\np73\ng39\n(S'Variable_Type'\n(I2\nttRp74\nsS'GSM17221'\np75\ng39\n(S'Variable_Type'\n(I2\nttRp76\nssg28\n(dp77\nsg30\n(dp78\nS'nCases'\np79\n(I20\nI-2\ntp80\nsS'selPercentage'\np81\n(I30\nI-2\ntp82\nssg35\nF1315223365.3447139\nsba(iOWContexts\nContext\np83\n(dp84\ng49\n(lp85\nS'orderedDomain'\np86\nasg36\n(dp87\nS'acceleration'\np88\ng39\n(S'Variable_Type'\n(I2\nttRp89\nsS'origin'\np90\ng39\n(S'Variable_Type'\n(I1\nttRp91\nsS'model_year'\np92\ng39\n(S'Variable_Type'\n(I1\nttRp93\nsS'cylinders'\np94\ng39\n(S'Variable_Type'\n(I1\nttRp95\nsS'weight'\np96\ng39\n(S'Variable_Type'\n(I2\nttRp97\nsS'mpg'\np98\ng39\n(S'Variable_Type'\n(I2\nttRp99\nsS'displacement'\np100\ng39\n(S'Variable_Type'\n(I2\nttRp101\nsS'car_name'\np102\ng39\n(S'Variable_Type'\n(I1\nttRp103\nsS'horsepower'\np104\ng39\n(S'Variable_Type'\n(I2\nttRp105\nssg28\n(dp106\nsg30\n(dp107\nS'nCases'\np108\n(I20\nI-2\ntp109\nsS'selPercentage'\np110\n(I30\nI-2\ntp111\nssg35\nF1314198436.8404641\nsba(iOWContexts\nContext\np112\n(dp113\ng49\n(lp114\ng55\nasg36\n(dp115\nS'GSM49536'\np116\ng39\n(S'Variable_Type'\n(I2\nttRp117\nsS'GSM49537'\np118\ng39\n(S'Variable_Type'\n(I2\nttRp119\nsS'GSM49534'\np120\ng39\n(S'Variable_Type'\n(I2\nttRp121\nsS'GSM49535'\np122\ng39\n(S'Variable_Type'\n(I2\nttRp123\nsS'GSM49532'\np124\ng39\n(S'Variable_Type'\n(I2\nttRp125\nsS'GSM49533'\np126\ng39\n(S'Variable_Type'\n(I2\nttRp127\nsS'GSM49530'\np128\ng39\n(S'Variable_Type'\n(I2\nttRp129\nsS'GSM49531'\np130\ng39\n(S'Variable_Type'\n(I2\nttRp131\nsS'GSM49519'\np132\ng39\n(S'Variable_Type'\n(I2\nttRp133\nsS'GSM49538'\np134\ng39\n(S'Variable_Type'\n(I2\nttRp135\nsS'GSM49539'\np136\ng39\n(S'Variable_Type'\n(I2\nttRp137\nsS'GSM49529'\np138\ng39\n(S'Variable_Type'\n(I2\nttRp139\nsS'GSM49528'\np140\ng39\n(S'Variable_Type'\n(I2\nttRp141\nsS'GSM49549'\np142\ng39\n(S'Variable_Type'\n(I2\nttRp143\nsS'GSM48576'\np144\ng39\n(S'Variable_Type'\n(I2\nttRp145\nsS'GSM49521'\np146\ng39\n(S'Variable_Type'\n(I2\nttRp147\nsS'GSM49520'\np148\ng39\n(S'Variable_Type'\n(I2\nttRp149\nsS'GSM49523'\np150\ng39\n(S'Variable_Type'\n(I2\nttRp151\nsS'GSM49522'\np152\ng39\n(S'Variable_Type'\n(I2\nttRp153\nsS'GSM49525'\np154\ng39\n(S'Variable_Type'\n(I2\nttRp155\nsS'GSM49524'\np156\ng39\n(S'Variable_Type'\n(I2\nttRp157\nsS'GSM49527'\np158\ng39\n(S'Variable_Type'\n(I2\nttRp159\nsS'GSM49526'\np160\ng39\n(S'Variable_Type'\n(I2\nttRp161\nsS'GSM49548'\np162\ng39\n(S'Variable_Type'\n(I2\nttRp163\nsS'GSM49547'\np164\ng39\n(S'Variable_Type'\n(I2\nttRp165\nsS'GSM49546'\np166\ng39\n(S'Variable_Type'\n(I2\nttRp167\nsS'GSM49545'\np168\ng39\n(S'Variable_Type'\n(I2\nttRp169\nsS'GSM49544'\np170\ng39\n(S'Variable_Type'\n(I2\nttRp171\nsS'GSM49543'\np172\ng39\n(S'Variable_Type'\n(I2\nttRp173\nsS'GSM49542'\np174\ng39\n(S'Variable_Type'\n(I2\nttRp175\nsS'GSM49541'\np176\ng39\n(S'Variable_Type'\n(I2\nttRp177\nsS'GSM49554'\np178\ng39\n(S'Variable_Type'\n(I2\nttRp179\nsS'GSM49555'\np180\ng39\n(S'Variable_Type'\n(I2\nttRp181\nsS'GSM49540'\np182\ng39\n(S'Variable_Type'\n(I2\nttRp183\nsS'GSM49550'\np184\ng39\n(S'Variable_Type'\n(I2\nttRp185\nsS'GSM49551'\np186\ng39\n(S'Variable_Type'\n(I2\nttRp187\nsS'GSM49552'\np188\ng39\n(S'Variable_Type'\n(I2\nttRp189\nsS'GSM49553'\np190\ng39\n(S'Variable_Type'\n(I2\nttRp191\nssg28\n(dp192\nsg30\n(dp193\nS'nCases'\np194\n(I20\nI-2\ntp195\nsS'selPercentage'\np196\n(I30\nI-2\ntp197\nssg35\nF1313670794.995795\nsba(iOWContexts\nContext\np198\n(dp199\ng30\n(dp200\nS'nCases'\np201\n(I1000\nI-2\ntp202\nsS'selPercentage'\np203\n(I30\nI-2\ntp204\nssg36\n(dp205\nS'perimeter'\np206\ng39\n(S'Variable_Type'\n(I2\nttRp207\nsS'worst_concavity'\np208\ng39\n(S'Variable_Type'\n(I2\nttRp209\nsS'worst_radius'\np210\ng39\n(S'Variable_Type'\n(I2\nttRp211\nsS'fractal dimension'\np212\ng39\n(S'Variable_Type'\n(I2\nttRp213\nsS'symmetry'\np214\ng39\n(S'Variable_Type'\n(I2\nttRp215\nsS'area'\np216\ng39\n(S'Variable_Type'\n(I2\nttRp217\nsS'worst_fractal dimension'\np218\ng39\n(S'Variable_Type'\n(I2\nttRp219\nsS'worst_compactness'\np220\ng39\n(S'Variable_Type'\n(I2\nttRp221\nsS'worst_smoothness'\np222\ng39\n(S'Variable_Type'\n(I2\nttRp223\nsS'texture'\np224\ng39\n(S'Variable_Type'\n(I2\nttRp225\nsS'worst_area'\np226\ng39\n(S'Variable_Type'\n(I2\nttRp227\nsS'worst_concave points'\np228\ng39\n(S'Variable_Type'\n(I2\nttRp229\nsS'diagnosis'\np230\ng39\n(S'Variable_Type'\n(I1\nttRp231\nsS'concavity'\np232\ng39\n(S'Variable_Type'\n(I2\nttRp233\nsS'radius'\np234\ng39\n(S'Variable_Type'\n(I2\nttRp235\nsS'compactness'\np236\ng39\n(S'Variable_Type'\n(I2\nttRp237\nsS'concave points'\np238\ng39\n(S'Variable_Type'\n(I2\nttRp239\nsS'worst_texture'\np240\ng39\n(S'Variable_Type'\n(I2\nttRp241\nsS'worst_symmetry'\np242\ng39\n(S'Variable_Type'\n(I2\nttRp243\nsS'worst_perimeter'\np244\ng39\n(S'Variable_Type'\n(I2\nttRp245\nsS'smoothness'\np246\ng39\n(S'Variable_Type'\n(I2\nttRp247\nssg28\n(dp248\nsg49\n(lp249\nS'orderedDomain'\np250\nasg35\nF1313597916.142112\nsba(iOWContexts\nContext\np251\n(dp252\ng30\n(dp253\ng201\n(I1000\nI-2\ntp254\nsg203\n(I30\nI-2\ntp255\nssg36\n(dp256\nS'ibh'\np257\ng39\n(S'Variable_Type'\n(I2\nttRp258\nsS'temp'\np259\ng39\n(S'Variable_Type'\n(I2\nttRp260\nsS'vh'\np261\ng39\n(S'Variable_Type'\n(I2\nttRp262\nsS'O3'\np263\ng39\n(S'Variable_Type'\n(I2\nttRp264\nsS'humidity'\np265\ng39\n(S'Variable_Type'\n(I2\nttRp266\nsS'dpg'\np267\ng39\n(S'Variable_Type'\n(I2\nttRp268\nsS'vis'\np269\ng39\n(S'Variable_Type'\n(I2\nttRp270\nsS'doy'\np271\ng39\n(S'Variable_Type'\n(I2\nttRp272\nsS'ibt'\np273\ng39\n(S'Variable_Type'\n(I2\nttRp274\nsS'wind'\np275\ng39\n(S'Variable_Type'\n(I2\nttRp276\nssg28\n(dp277\nsg49\n(lp278\ng250\nasg35\nF1313597890.6783919\nsba(iOWContexts\nContext\np279\n(dp280\ng49\n(lp281\nS'orderedDomain'\np282\nasg36\n(dp283\nS'GSM11408'\np284\ng39\n(S'Variable_Type'\n(I2\nttRp285\nsS'GSM11410'\np286\ng39\n(S'Variable_Type'\n(I2\nttRp287\nsS'GSM11412'\np288\ng39\n(S'Variable_Type'\n(I2\nttRp289\nsS'GSM11414'\np290\ng39\n(S'Variable_Type'\n(I2\nttRp291\nsS'GSM11406'\np292\ng39\n(S'Variable_Type'\n(I2\nttRp293\nsS'GSM11404'\np294\ng39\n(S'Variable_Type'\n(I2\nttRp295\nssg28\n(dp296\nsg30\n(dp297\nS'nCases'\np298\n(I20\nI-2\ntp299\nsS'selPercentage'\np300\n(I30\nI-2\ntp301\nssg35\nF1310643628.9228549\nsbasg32\nI20\nsS'Folds'\np302\nI1\nsS'UseSpecificSeed'\np303\nI0\nsS'GroupText'\np304\nS'0.1,0.25,0.5'\np305\nsS'CVFoldsInternal'\np306\nI10\ns."
p7
sS'Scatterplot 3D'
p8
S"(dp1\nS'widgetXPosition'\np2\nI144\nsS'widgetYPosition'\np3\nI136\nsS'widgetWidth'\np4\nI1147\nsS'plot.show_x_axis_title'\np5\nI01\nsS'widgetHeight'\np6\nI669\nsS'savedWidgetGeometry'\np7\nS'\\x01\\xd9\\xd0\\xcb\\x00\\x01\\x00\\x00\\x00\\x00\\x00\\x90\\x00\\x00\\x00\\x88\\x00\\x00\\x05\\n\\x00\\x00\\x03:\\x00\\x00\\x00\\x90\\x00\\x00\\x00\\x9e\\x00\\x00\\x05\\n\\x00\\x00\\x03:\\x00\\x00\\x00\\x00\\x00\\x00'\np8\nsS'plot.alpha_value'\np9\nI255\nsS'auto_send_selection'\np10\nNsS'plot.show_axes'\np11\nI01\nsS'plot.symbol_scale'\np12\nI9\nsS'plot.show_z_axis_title'\np13\nI01\nsS'plot.symbol_size'\np14\nNsS'dark_theme'\np15\nI00\nsS'auto_send_selection_update'\np16\nNsS'plot.pitch'\np17\nF-0.78539816339744828\nsS'widgetShown'\np18\nI0\nsS'plot.jitter_size'\np19\nI10\nsS'plot.show_chassis'\np20\nI01\nsS'localContextsVersion'\np21\n(I100\nI0\ntp22\nsS'localContexts'\np23\n(lp24\n(iOWContexts\nContext\np25\n(dp26\nS'metas'\np27\n(dp28\nsS'values'\np29\n(dp30\nS'x_attr'\np31\n(S'sepal length'\np32\ncorange\n__pickleLoaderNamedConstants\np33\n(S'Variable_Type'\n(I2\nttRp34\ntp35\nsS'z_attr'\np36\n(S'petal length'\np37\ng33\n(S'Variable_Type'\n(I2\nttRp38\ntp39\nsS'y_attr'\np40\n(S'sepal width'\np41\ng33\n(S'Variable_Type'\n(I2\nttRp42\ntp43\nssS'time'\np44\nF1315652030.042599\nsS'attributes'\np45\n(dp46\nS'petal length'\np47\ng38\nsS'petal width'\np48\ng33\n(S'Variable_Type'\n(I2\nttRp49\nsS'sepal width'\np50\ng42\nsS'sepal length'\np51\ng34\nssS'noCopy'\np52\n(lp53\nS'orderedDomain'\np54\nasba(iOWContexts\nContext\np55\n(dp56\ng52\n(lp57\nS'orderedDomain'\np58\nasg45\n(dp59\nS'Elu 270'\np60\ng33\n(S'Variable_Type'\n(I2\nttRp61\nsS'spo5 7'\np62\ng33\n(S'Variable_Type'\n(I2\nttRp63\nsS'alpha 14'\np64\ng33\n(S'Variable_Type'\n(I2\nttRp65\nsS'Elu 390'\np66\ng33\n(S'Variable_Type'\n(I2\nttRp67\nsS'alpha 56'\np68\ng33\n(S'Variable_Type'\n(I2\nttRp69\nsS'Elu 210'\np70\ng33\n(S'Variable_Type'\n(I2\nttRp71\nsS'Elu 60'\np72\ng33\n(S'Variable_Type'\n(I2\nttRp73\nsS'cdc15 130'\np74\ng33\n(S'Variable_Type'\n(I2\nttRp75\nsS'Elu 330'\np76\ng33\n(S'Variable_Type'\n(I2\nttRp77\nsS'cdc15 50'\np78\ng33\n(S'Variable_Type'\n(I2\nttRp79\nsS'spo 11'\np80\ng33\n(S'Variable_Type'\n(I2\nttRp81\nsS'spo- mid'\np82\ng33\n(S'Variable_Type'\n(I2\nttRp83\nsS'dtt 15'\np84\ng33\n(S'Variable_Type'\n(I2\nttRp85\nsS'alpha 91'\np86\ng33\n(S'Variable_Type'\n(I2\nttRp87\nsS'Elu 90'\np88\ng33\n(S'Variable_Type'\n(I2\nttRp89\nsS'alpha 105'\np90\ng33\n(S'Variable_Type'\n(I2\nttRp91\nsS'dtt 30'\np92\ng33\n(S'Variable_Type'\n(I2\nttRp93\nsS'alpha 98'\np94\ng33\n(S'Variable_Type'\n(I2\nttRp95\nsS'Elu 150'\np96\ng33\n(S'Variable_Type'\n(I2\nttRp97\nsS'cold 20'\np98\ng33\n(S'Variable_Type'\n(I2\nttRp99\nsS'Elu 120'\np100\ng33\n(S'Variable_Type'\n(I2\nttRp101\nsS'cdc15 10'\np102\ng33\n(S'Variable_Type'\n(I2\nttRp103\nsS'alpha 0'\np104\ng33\n(S'Variable_Type'\n(I2\nttRp105\nsS'alpha 7'\np106\ng33\n(S'Variable_Type'\n(I2\nttRp107\nsS'heat 80'\np108\ng33\n(S'Variable_Type'\n(I2\nttRp109\nsS'diau a'\np110\ng33\n(S'Variable_Type'\n(I2\nttRp111\nsS'diau c'\np112\ng33\n(S'Variable_Type'\n(I2\nttRp113\nsS'diau b'\np114\ng33\n(S'Variable_Type'\n(I2\nttRp115\nsS'diau e'\np116\ng33\n(S'Variable_Type'\n(I2\nttRp117\nsS'diau d'\np118\ng33\n(S'Variable_Type'\n(I2\nttRp119\nsS'spo5 11'\np120\ng33\n(S'Variable_Type'\n(I2\nttRp121\nsS'diau f'\np122\ng33\n(S'Variable_Type'\n(I2\nttRp123\nsS'cold 160'\np124\ng33\n(S'Variable_Type'\n(I2\nttRp125\nsS'alpha 28'\np126\ng33\n(S'Variable_Type'\n(I2\nttRp127\nsS'Elu 30'\np128\ng33\n(S'Variable_Type'\n(I2\nttRp129\nsS'cdc15 70'\np130\ng33\n(S'Variable_Type'\n(I2\nttRp131\nsS'function'\np132\ng33\n(S'Variable_Type'\n(I1\nttRp133\nsS'heat 40'\np134\ng33\n(S'Variable_Type'\n(I2\nttRp135\nsS'alpha 42'\np136\ng33\n(S'Variable_Type'\n(I2\nttRp137\nsS'cdc15 170'\np138\ng33\n(S'Variable_Type'\n(I2\nttRp139\nsS'alpha 63'\np140\ng33\n(S'Variable_Type'\n(I2\nttRp141\nsS'Elu 360'\np142\ng33\n(S'Variable_Type'\n(I2\nttRp143\nsS'heat 160'\np144\ng33\n(S'Variable_Type'\n(I2\nttRp145\nsS'dtt 120'\np146\ng33\n(S'Variable_Type'\n(I2\nttRp147\nsS'alpha 49'\np148\ng33\n(S'Variable_Type'\n(I2\nttRp149\nsS'Elu 180'\np150\ng33\n(S'Variable_Type'\n(I2\nttRp151\nsS'heat 20'\np152\ng33\n(S'Variable_Type'\n(I2\nttRp153\nsS'Elu 240'\np154\ng33\n(S'Variable_Type'\n(I2\nttRp155\nsS'cdc15 150'\np156\ng33\n(S'Variable_Type'\n(I2\nttRp157\nsS'alpha 84'\np158\ng33\n(S'Variable_Type'\n(I2\nttRp159\nsS'cdc15 110'\np160\ng33\n(S'Variable_Type'\n(I2\nttRp161\nsS'cdc15 290'\np162\ng33\n(S'Variable_Type'\n(I2\nttRp163\nsS'cold 40'\np164\ng33\n(S'Variable_Type'\n(I2\nttRp165\nsS'cold 0'\np166\ng33\n(S'Variable_Type'\n(I2\nttRp167\nsS'alpha 112'\np168\ng33\n(S'Variable_Type'\n(I2\nttRp169\nsS'cdc15 270'\np170\ng33\n(S'Variable_Type'\n(I2\nttRp171\nsS'diau g'\np172\ng33\n(S'Variable_Type'\n(I2\nttRp173\nsS'cdc15 230'\np174\ng33\n(S'Variable_Type'\n(I2\nttRp175\nsS'spo 0'\np176\ng33\n(S'Variable_Type'\n(I2\nttRp177\nsS'spo 2'\np178\ng33\n(S'Variable_Type'\n(I2\nttRp179\nsS'spo 5'\np180\ng33\n(S'Variable_Type'\n(I2\nttRp181\nsS'cdc15 250'\np182\ng33\n(S'Variable_Type'\n(I2\nttRp183\nsS'spo 7'\np184\ng33\n(S'Variable_Type'\n(I2\nttRp185\nsS'spo 9'\np186\ng33\n(S'Variable_Type'\n(I2\nttRp187\nsS'Elu 0'\np188\ng33\n(S'Variable_Type'\n(I2\nttRp189\nsS'cdc15 90'\np190\ng33\n(S'Variable_Type'\n(I2\nttRp191\nsS'Elu 300'\np192\ng33\n(S'Variable_Type'\n(I2\nttRp193\nsS'alpha 119'\np194\ng33\n(S'Variable_Type'\n(I2\nttRp195\nsS'alpha 35'\np196\ng33\n(S'Variable_Type'\n(I2\nttRp197\nsS'dtt 60'\np198\ng33\n(S'Variable_Type'\n(I2\nttRp199\nsS'spo- early'\np200\ng33\n(S'Variable_Type'\n(I2\nttRp201\nsS'heat 10'\np202\ng33\n(S'Variable_Type'\n(I2\nttRp203\nsS'heat 0'\np204\ng33\n(S'Variable_Type'\n(I2\nttRp205\nsS'cdc15 190'\np206\ng33\n(S'Variable_Type'\n(I2\nttRp207\nsS'spo5 2'\np208\ng33\n(S'Variable_Type'\n(I2\nttRp209\nsS'alpha 70'\np210\ng33\n(S'Variable_Type'\n(I2\nttRp211\nsS'cdc15 30'\np212\ng33\n(S'Variable_Type'\n(I2\nttRp213\nsS'cdc15 210'\np214\ng33\n(S'Variable_Type'\n(I2\nttRp215\nsS'alpha 77'\np216\ng33\n(S'Variable_Type'\n(I2\nttRp217\nsS'alpha 21'\np218\ng33\n(S'Variable_Type'\n(I2\nttRp219\nssg27\n(dp220\nsg29\n(dp221\nS'x_attr'\np222\n(S'alpha 0'\ng105\ntp223\nsS'z_attr'\np224\n(S'alpha 14'\ng65\ntp225\nsS'y_attr'\np226\n(S'alpha 7'\ng107\ntp227\nssg44\nF1316620987.9778521\nsba(iOWContexts\nContext\np228\n(dp229\ng29\n(dp230\nS'x_attr'\np231\n(g32\ng33\n(S'Variable_Type'\n(I2\nttRp232\ntp233\nsS'z_attr'\np234\n(g37\ng33\n(S'Variable_Type'\n(I2\nttRp235\ntp236\nsS'y_attr'\np237\n(g41\ng33\n(S'Variable_Type'\n(I2\nttRp238\ntp239\nssg45\n(dp240\nS'petal length'\np241\ng235\nsS'petal width'\np242\ng33\n(S'Variable_Type'\n(I2\nttRp243\nsS'sepal width'\np244\ng238\nsS'sepal length'\np245\ng232\nsS'iris'\np246\ng33\n(S'Variable_Type'\n(I1\nttRp247\nssg27\n(dp248\nsg52\n(lp249\ng54\nasg44\nF1315652030.042599\nsba(iOWContexts\nContext\np250\n(dp251\ng29\n(dp252\ng231\n(S'humidity'\ng33\n(S'Variable_Type'\n(I2\nttRp253\ntp254\nsg234\n(S'humidity'\ng253\ntp255\nsg237\n(S'ibt'\ng33\n(S'Variable_Type'\n(I2\nttRp256\ntp257\nssg45\n(dp258\nS'ibh'\np259\ng33\n(S'Variable_Type'\n(I2\nttRp260\nsS'temp'\np261\ng33\n(S'Variable_Type'\n(I2\nttRp262\nsS'vh'\np263\ng33\n(S'Variable_Type'\n(I2\nttRp264\nsS'O3'\np265\ng33\n(S'Variable_Type'\n(I2\nttRp266\nsS'humidity'\np267\ng253\nsS'dpg'\np268\ng33\n(S'Variable_Type'\n(I2\nttRp269\nsS'vis'\np270\ng33\n(S'Variable_Type'\n(I2\nttRp271\nsS'doy'\np272\ng33\n(S'Variable_Type'\n(I2\nttRp273\nsS'ibt'\np274\ng256\nsS'wind'\np275\ng33\n(S'Variable_Type'\n(I2\nttRp276\nssg27\n(dp277\nsg52\n(lp278\nS'orderedDomain'\np279\nasg44\nF1315651930.4700251\nsbasS'plot.show_grid'\np280\nI01\nsS'plot.yaw'\np281\nF-0.78539816339744828\nsS'plot.jitter_continuous'\np282\nI0\nsS'plot.use_2d_symbols'\np283\nI00\nsS'plot.show_y_axis_title'\np284\nI01\nsS'plot.show_legend'\np285\nI01\ns."
p9
sS'File'
p10
S"(dp1\nS'widgetHeight'\np2\nI371\nsS'widgetXPosition'\np3\nI136\nsS'widgetYPosition'\np4\nI147\nsS'savedWidgetGeometry'\np5\nS'\\x01\\xd9\\xd0\\xcb\\x00\\x01\\x00\\x00\\x00\\x00\\x00\\x88\\x00\\x00\\x00\\x93\\x00\\x00\\x02g\\x00\\x00\\x02\\x1b\\x00\\x00\\x00\\x88\\x00\\x00\\x00\\xa9\\x00\\x00\\x02g\\x00\\x00\\x02\\x1b\\x00\\x00\\x00\\x00\\x00\\x00'\np6\nsS'widgetShown'\np7\nI1\nsS'showAdvanced'\np8\nI0\nsS'createNewOn'\np9\nI1\nsS'widgetWidth'\np10\nI480\nsS'localContextsVersion'\np11\n(I100\nI0\ntp12\nsS'localContexts'\np13\n(lp14\n(iOWContexts\nContext\np15\n(dp16\nS'symbolDK'\np17\nS''\nsS'symbolDC'\np18\nS''\nsS'time'\np19\nF1317805356.3890929\nsS'filename'\np20\nS'/Users/aleserjavec/Documents/workspace/orange/doc/datasets/iris.tab'\np21\nsba(iOWContexts\nContext\np22\n(dp23\ng18\nS''\nsg17\nS''\nsg20\nS'/Users/aleserjavec/Documents/workspace/orange/doc/datasets/smokers_ct.tab'\np24\nsg19\nF1317805349.4459479\nsba(iOWContexts\nContext\np25\n(dp26\ng18\nS''\nsg17\nS''\nsg20\nS'/Users/aleserjavec/Documents/workspace/orange/doc/datasets/brown-selected.tab'\np27\nsg19\nF1317296829.6286261\nsba(iOWContexts\nContext\np28\n(dp29\ng18\nS''\nsg17\nS''\nsg20\nS'/Users/aleserjavec/Documents/workspace/orange/doc/datasets/lenses.tab'\np30\nsg19\nF1317052583.4233949\nsba(iOWContexts\nContext\np31\n(dp32\ng17\nS''\nsg18\nS''\nsg19\nF1316605381.6125889\nsg20\nS'/Users/aleserjavec/train.tab'\np33\nsba(iOWContexts\nContext\np34\n(dp35\ng17\nS''\nsg18\nS''\nsg19\nF1316600031.2453589\nsg20\nS'/Users/aleserjavec/train.tab'\np36\nsba(iOWContexts\nContext\np37\n(dp38\ng17\nS''\nsg18\nS''\nsg19\nF1315815321.8907139\nsg20\nS'/Users/aleserjavec/test.tab'\np39\nsba(iOWContexts\nContext\np40\n(dp41\ng17\nS''\nsg18\nS''\nsg19\nF1315815321.8907139\nsg20\nS'/Users/aleserjavec/test.tab'\np42\nsba(iOWContexts\nContext\np43\n(dp44\ng17\nS''\nsg18\nS''\nsg19\nF1315815313.4387381\nsg20\nS'/Users/aleserjavec/Documents/workspace/orange/doc/datasets/iris.tab'\np45\nsba(iOWContexts\nContext\np46\n(dp47\ng17\nS''\nsg18\nS''\nsg19\nF1315815248.4868729\nsg20\nS'/Users/aleserjavec/Documents/workspace/orange/doc/datasets/iris.tab'\np48\nsba(iOWContexts\nContext\np49\n(dp50\ng17\nS''\nsg18\nS''\nsg19\nF1315815248.4868729\nsg20\ng21\nsba(iOWContexts\nContext\np51\n(dp52\ng18\nS''\nsg17\nS''\nsg20\nS'/Users/aleserjavec/ozone1.tab'\np53\nsg19\nF1315651897.9245279\nsba(iOWContexts\nContext\np54\n(dp55\ng18\nS''\nsg17\nS''\nsg20\nS'/Users/aleserjavec/ozone1.tab'\np56\nsg19\nF1315651897.9245279\nsba(iOWContexts\nContext\np57\n(dp58\ng18\nS''\nsg17\nS''\nsg20\nS'/Users/aleserjavec/ozone1.tab'\np59\nsg19\nF1315651897.9245279\nsba(iOWContexts\nContext\np60\n(dp61\ng18\nS''\nsg17\nS''\nsg20\nS'/Users/aleserjavec/ozone1.tab'\np62\nsg19\nF1315651897.9245279\nsba(iOWContexts\nContext\np63\n(dp64\ng17\nS''\nsg18\nS''\nsg19\nF1315574905.3976009\nsg20\nS'/Users/aleserjavec/Documents/workspace/orange/doc/datasets/housing.tab'\np65\nsba(iOWContexts\nContext\np66\n(dp67\ng17\nS''\nsg18\nS''\nsg19\nF1315574905.3976009\nsg20\nS'/Users/aleserjavec/Documents/workspace/orange/doc/datasets/housing.tab'\np68\nsba(iOWContexts\nContext\np69\n(dp70\ng17\nS''\nsg18\nS''\nsg19\nF1315574905.3976009\nsg20\nS'/Users/aleserjavec/Documents/workspace/orange/doc/datasets/housing.tab'\np71\nsba(iOWContexts\nContext\np72\n(dp73\ng17\nS''\nsg18\nS''\nsg19\nF1315574905.3976009\nsg20\nS'/Users/aleserjavec/Documents/workspace/orange/doc/datasets/housing.tab'\np74\nsba(iOWContexts\nContext\np75\n(dp76\ng17\nS''\nsg18\nS''\nsg19\nF1315314552.8541701\nsg20\nS'/Users/aleserjavec/Documents/workspace/orange/doc/datasets/adult_sample.tab'\np77\nsba(iOWContexts\nContext\np78\n(dp79\ng17\nS''\nsg18\nS''\nsg19\nF1315314552.8541701\nsg20\nS'/Users/aleserjavec/Documents/workspace/orange/doc/datasets/adult_sample.tab'\np80\nsba(iOWContexts\nContext\np81\n(dp82\ng17\nS''\nsg18\nS''\nsg19\nF1315314552.8541701\nsg20\nS'/Users/aleserjavec/Documents/workspace/orange/doc/datasets/adult_sample.tab'\np83\nsba(iOWContexts\nContext\np84\n(dp85\ng17\nS''\nsg18\nS''\nsg19\nF1315314552.8541701\nsg20\nS'/Users/aleserjavec/Documents/workspace/orange/doc/datasets/adult_sample.tab'\np86\nsba(iOWContexts\nContext\np87\n(dp88\ng17\nS''\nsg18\nS''\nsg19\nF1315298349.715632\nsg20\ng48\nsba(iOWContexts\nContext\np89\n(dp90\ng17\nS''\nsg18\nS''\nsg19\nF1315298349.715632\nsg20\nS'/Users/aleserjavec/Documents/workspace/orange/doc/datasets/iris.tab'\np91\nsba(iOWContexts\nContext\np92\n(dp93\ng17\nS''\nsg18\nS''\nsg19\nF1315298349.715632\nsg20\ng21\nsba(iOWContexts\nContext\np94\n(dp95\ng17\nS''\nsg18\nS''\nsg19\nF1315298349.715632\nsg20\ng45\nsba(iOWContexts\nContext\np96\n(dp97\ng17\nS''\nsg18\nS''\nsg19\nF1315252523.4596739\nsg20\nS'/Users/aleserjavec/Documents/workspace/orange/doc/datasets/auto-mpg.tab'\np98\nsba(iOWContexts\nContext\np99\n(dp100\ng17\nS''\nsg18\nS''\nsg19\nF1315252523.4596739\nsg20\nS'/Users/aleserjavec/Documents/workspace/orange/doc/datasets/auto-mpg.tab'\np101\nsba(iOWContexts\nContext\np102\n(dp103\ng17\nS''\nsg18\nS''\nsg19\nF1315252523.4596739\nsg20\nS'/Users/aleserjavec/Documents/workspace/orange/doc/datasets/auto-mpg.tab'\np104\nsba(iOWContexts\nContext\np105\n(dp106\ng17\nS''\nsg18\nS''\nsg19\nF1315252523.4596739\nsg20\nS'/Users/aleserjavec/Documents/workspace/orange/doc/datasets/auto-mpg.tab'\np107\nsba(iOWContexts\nContext\np108\n(dp109\ng17\nS''\nsg18\nS''\nsg19\nF1315252523.4596739\nsg20\nS'/Users/aleserjavec/Documents/workspace/orange/doc/datasets/auto-mpg.tab'\np110\nsba(iOWContexts\nContext\np111\n(dp112\ng17\nS''\nsg18\nS''\nsg19\nF1315252523.4596739\nsg20\nS'/Users/aleserjavec/Documents/workspace/orange/doc/datasets/auto-mpg.tab'\np113\nsba(iOWContexts\nContext\np114\n(dp115\ng17\nS''\nsg18\nS''\nsg19\nF1315252523.4596739\nsg20\nS'/Users/aleserjavec/Documents/workspace/orange/doc/datasets/auto-mpg.tab'\np116\nsba(iOWContexts\nContext\np117\n(dp118\ng17\nS''\nsg18\nS''\nsg19\nF1315252523.4596739\nsg20\nS'/Users/aleserjavec/Documents/workspace/orange/doc/datasets/auto-mpg.tab'\np119\nsba(iOWContexts\nContext\np120\n(dp121\ng17\nS''\nsg18\nS''\nsg19\nF1314966325.465493\nsg20\nS'/Users/aleserjavec/Documents/workspace/orange/doc/datasets/iris.tab'\np122\nsba(iOWContexts\nContext\np123\n(dp124\ng17\nS''\nsg18\nS''\nsg19\nF1314966325.465493\nsg20\nS'/Users/aleserjavec/Documents/workspace/orange/doc/datasets/iris.tab'\np125\nsba(iOWContexts\nContext\np126\n(dp127\ng17\nS''\nsg18\nS''\nsg19\nF1314966325.465493\nsg20\nS'/Users/aleserjavec/Documents/workspace/orange/doc/datasets/iris.tab'\np128\nsba(iOWContexts\nContext\np129\n(dp130\ng17\nS''\nsg18\nS''\nsg19\nF1314966325.465493\nsg20\nS'/Users/aleserjavec/Documents/workspace/orange/doc/datasets/iris.tab'\np131\nsba(iOWContexts\nContext\np132\n(dp133\ng17\nS''\nsg18\nS''\nsg19\nF1314966325.465493\nsg20\nS'/Users/aleserjavec/Documents/workspace/orange/doc/datasets/iris.tab'\np134\nsba(iOWContexts\nContext\np135\n(dp136\ng17\nS''\nsg18\nS''\nsg19\nF1314966325.465493\nsg20\nS'/Users/aleserjavec/Documents/workspace/orange/doc/datasets/iris.tab'\np137\nsba(iOWContexts\nContext\np138\n(dp139\ng17\nS''\nsg18\nS''\nsg19\nF1314966325.465493\nsg20\nS'/Users/aleserjavec/Documents/workspace/orange/doc/datasets/iris.tab'\np140\nsba(iOWContexts\nContext\np141\n(dp142\ng17\nS''\nsg18\nS''\nsg19\nF1314966325.465493\nsg20\nS'/Users/aleserjavec/Documents/workspace/orange/doc/datasets/iris.tab'\np143\nsba(iOWContexts\nContext\np144\n(dp145\ng17\nS''\nsg18\nS''\nsg19\nF1314964455.001205\nsg20\nS'/Users/aleserjavec/Documents/workspace/orange/doc/datasets/housing.tab'\np146\nsba(iOWContexts\nContext\np147\n(dp148\ng17\nS''\nsg18\nS''\nsg19\nF1314964455.001205\nsg20\nS'/Users/aleserjavec/Documents/workspace/orange/doc/datasets/housing.tab'\np149\nsba(iOWContexts\nContext\np150\n(dp151\ng17\nS''\nsg18\nS''\nsg19\nF1314964455.001205\nsg20\nS'/Users/aleserjavec/Documents/workspace/orange/doc/datasets/housing.tab'\np152\nsba(iOWContexts\nContext\np153\n(dp154\ng17\nS''\nsg18\nS''\nsg19\nF1314964455.001205\nsg20\nS'/Users/aleserjavec/Documents/workspace/orange/doc/datasets/housing.tab'\np155\nsba(iOWContexts\nContext\np156\n(dp157\ng17\nS''\nsg18\nS''\nsg19\nF1314962617.3234839\nsg20\ng65\nsba(iOWContexts\nContext\np158\n(dp159\ng17\nS''\nsg18\nS''\nsg19\nF1314962617.3234839\nsg20\nS'/Users/aleserjavec/Documents/workspace/orange/doc/datasets/housing.tab'\np160\nsba(iOWContexts\nContext\np161\n(dp162\ng17\nS''\nsg18\nS''\nsg19\nF1314962617.3234839\nsg20\ng68\nsbasS'recentFiles'\np163\n(lp164\ng21\nag24\nag27\nag30\nag33\nag59\nag71\nag83\nag110\naS'/Users/aleserjavec/Untitled 1.csv'\np165\naS'/Users/aleserjavec/Untitled 1.tab'\np166\naS'/Users/aleserjavec/Documents/workspace/orange/doc/datasets/post-operative.tab'\np167\naS'/Users/aleserjavec/Documents/workspace/orange/doc/datasets/promoters.tab'\np168\naS'/Users/aleserjavec/Documents/workspace/orange/doc/datasets/zoo.tab'\np169\naS'/Users/aleserjavec/Documents/workspace/orange/add-ons/orngChem/sens.tab'\np170\nas."
p11
s.