(dp1
S'Data Sampler'
p2
S"(dp1\nS'widgetShown'\np2\nNsS'widgetHeight'\np3\nI548\nsS'widgetXPosition'\np4\nI168\nsS'widgetWidth'\np5\nI248\nsS'widgetYPosition'\np6\nI217\ns."
p3
sS'Linear Projection'
p4
S"(dp1\nS'autoSendSelection'\np2\nI1\nsS'widgetXPosition'\np3\nI463\nsS'widgetYPosition'\np4\nI30\nsS'addProjectedPositions'\np5\nI0\nsS'widgetWidth'\np6\nI789\nsS'selectedSchemaIndex'\np7\nI0\nsS'graph.pointWidth'\np8\nI9\nsS'graph.showFilledSymbols'\np9\nI1\nsS'widgetHeight'\np10\nI622\nsS'graph.scaleFactor'\np11\nF1\nsS'graph.squareGranularity'\np12\nI3\nsS'colorSettings'\np13\n(lp14\n(lp15\nS'schaap'\np16\na(lp17\n(lp18\n(S'Canvas'\nI-1\ntp19\naa(lp20\n(S'contPalette'\n(I-1\nI-16777216\nI0\nttp21\naa(lp22\nI-16776961\naI-65536\naI-16711936\naI-32768\naI-256\naI-65281\naI-16711681\naI-8388353\naI-16744193\naI-8320\naI-8425664\naI-10736128\naI-16755712\naI-4145152\naI-16744577\naI-8388608\naI-8454017\naaaa(S'Default'\n(lp23\n(lp24\n(S'Canvas'\nI-1\ntp25\naa(lp26\n(S'contPalette'\n(I-1\nI-16777216\nI0\nttp27\naa(lp28\nI-16776961\naI-65536\naI-16711936\naI-32768\naI-256\naI-65281\naI-16711681\naI-8388353\naI-16744193\naI-8320\naI-8425664\naI-10736128\naI-16755712\naI-4145152\naI-16744577\naI-8388608\naI-8454017\naatp29\nasS'graph.globalValueScaling'\np30\nI0\nsS'valueScalingType'\np31\nI0\nsS'showProbabilitiesDetails'\np32\nI00\nsS'graph.jitterSize'\np33\nI10\nsS'graph.useDifferentColors'\np34\nI1\nsS'graph.showProbabilities'\np35\nI00\nsS'graph.tooltipValue'\np36\nI0\nsS'widgetShown'\np37\nI1\nsS'showAllAttributes'\np38\nI00\nsS'graph.showLegend'\np39\nI1\nsS'localContexts'\np40\n(lp41\n(iOWContexts\nContext\np42\n(dp43\nS'values'\np44\n(dp45\nS'shownAttributes'\np46\n(lp47\n(S'spore volume'\nI2\ntp48\na(S'spore shape'\nI2\ntp49\na(S'microcyst'\nI1\ntp50\na(S'macrocyst'\nI1\ntp51\na(S'aggr streaming'\nI2\ntp52\na(S'slug migr'\nI2\ntp53\na(S'aggr size'\nI2\ntp54\na(S'sorocarp habit'\nI1\ntp55\na(S'branching'\nI1\ntp56\na(S'stalk height'\nI2\ntp57\na(S'stalk diameter'\nI2\ntp58\na(S'sori diameter'\nI2\ntp59\na(S'support'\nI1\ntp60\na(S'cell diameter'\nI2\ntp61\na(S'cellular stalk'\nI1\ntp62\na(S'tip shape'\nI1\ntp63\na(S'phototropism'\nI2\ntp64\nasS'selectedShown'\np65\n(lp66\nssS'time'\np67\nF1166517778.296\nsS'noCopy'\np68\n(lp69\nS'orderedDomain'\np70\nasS'encodedDomain'\np71\n(dp72\nS'microcyst'\np73\nI1\nsS'branching'\np74\nI1\nsS'cellular stalk'\np75\nI1\nsS'slug migr'\np76\nI2\nsS'group'\np77\nI1\nsS'spore volume'\np78\nI2\nsS'support'\np79\nI1\nsS'aggr size'\np80\nI2\nsS'stalk diameter'\np81\nI2\nsS'Species'\np82\nI6\nsS'cell diameter'\np83\nI2\nsS'tip shape'\np84\nI1\nsS'stalk height'\np85\nI2\nsS'sori diameter'\np86\nI2\nsS'macrocyst'\np87\nI1\nsS'aggr streaming'\np88\nI2\nsS'spore shape'\np89\nI2\nsS'phototropism'\np90\nI2\nsS'sorocarp habit'\np91\nI1\nssba(iOWContexts\nContext\np92\n(dp93\nS'noCopy'\np94\n(lp95\nS'orderedDomain'\np96\nasS'encodedDomain'\np97\n(dp98\nS'ssurfar'\np99\nI1\nsS'gillspace'\np100\nI1\nsS'edible'\np101\nI1\nsS'habitat'\np102\nI1\nsS'veilcol'\np103\nI1\nsS'ssurfbr'\np104\nI1\nsS'bruises'\np105\nI1\nsS'capsurf'\np106\nI1\nsS'gillcol'\np107\nI1\nsS'odor'\np108\nI1\nsS'scolar'\np109\nI1\nsS'gillattach'\np110\nI1\nsS'stalkshape'\np111\nI1\nsS'ringtype'\np112\nI1\nsS'ringnumber'\np113\nI1\nsS'scolbr'\np114\nI1\nsS'gillsize'\np115\nI1\nsS'capcol'\np116\nI1\nsS'sporeprint'\np117\nI1\nsS'capshape'\np118\nI1\nsS'population'\np119\nI1\nssS'values'\np120\n(dp121\nS'shownAttributes'\np122\n(lp123\n(S'capshape'\nI1\ntp124\na(S'capsurf'\nI1\ntp125\na(S'capcol'\nI1\ntp126\na(S'bruises'\nI1\ntp127\na(S'odor'\nI1\ntp128\na(S'gillattach'\nI1\ntp129\na(S'gillspace'\nI1\ntp130\na(S'gillsize'\nI1\ntp131\na(S'gillcol'\nI1\ntp132\na(S'stalkshape'\nI1\ntp133\nasS'selectedShown'\np134\n(lp135\nssS'time'\np136\nF1163594039.734\nsba(iOWContexts\nContext\np137\n(dp138\nS'noCopy'\np139\n(lp140\nS'orderedDomain'\np141\nasS'encodedDomain'\np142\n(dp143\nS'highway-mpg'\np144\nI2\nsS'compression-ratio'\np145\nI2\nsS'height'\np146\nI2\nsS'stroke'\np147\nI2\nsS'horsepower'\np148\nI2\nsS'bore'\np149\nI2\nsS'num-of-cylinders'\np150\nI1\nsS'engine-location'\np151\nI1\nsS'make'\np152\nI1\nsS'normalized-losses'\np153\nI2\nsS'width'\np154\nI2\nsS'wheel-base'\np155\nI2\nsS'symboling'\np156\nI1\nsS'body-style'\np157\nI1\nsS'engine-size'\np158\nI2\nsS'drive-wheels'\np159\nI1\nsS'curb-weight'\np160\nI2\nsS'price'\np161\nI1\nsS'fuel-system'\np162\nI1\nsS'num-of-doors'\np163\nI1\nsS'fuel-type'\np164\nI1\nsS'aspiration'\np165\nI1\nsS'engine-type'\np166\nI1\nsS'length'\np167\nI2\nsS'city-mpg'\np168\nI2\nsS'peak-rpm'\np169\nI2\nssS'values'\np170\n(dp171\nS'shownAttributes'\np172\n(lp173\n(S'engine-location'\nI1\ntp174\na(S'length'\nI2\ntp175\na(S'curb-weight'\nI2\ntp176\na(S'num-of-cylinders'\nI1\ntp177\na(S'fuel-system'\nI1\ntp178\na(S'peak-rpm'\nI2\ntp179\na(S'highway-mpg'\nI2\ntp180\nasS'selectedShown'\np181\n(lp182\nssS'time'\np183\nF1157973758.562\nsba(iOWContexts\nContext\np184\n(dp185\nS'values'\np186\n(dp187\nS'shownAttributes'\np188\n(lp189\n(S'LSTAT'\nI2\ntp190\na(S'RM'\nI2\ntp191\na(S'CHAS'\nI2\ntp192\na(S'DIS'\nI2\ntp193\na(S'NOX'\nI2\ntp194\na(S'AGE'\nI2\ntp195\nasS'selectedShown'\np196\n(lp197\nssS'time'\np198\nF1157969557.125\nsS'noCopy'\np199\n(lp200\nS'orderedDomain'\np201\nasS'encodedDomain'\np202\n(dp203\nS'CRIM'\np204\nI2\nsS'ZN'\np205\nI2\nsS'B'\nI2\nsS'LSTAT'\np206\nI2\nsS'AGE'\np207\nI2\nsS'TAX'\np208\nI2\nsS'RAD'\np209\nI2\nsS'CHAS'\np210\nI2\nsS'NOX'\np211\nI2\nsS'MEDV'\np212\nI1\nsS'RM'\np213\nI2\nsS'INDUS'\np214\nI2\nsS'PTRATIO'\np215\nI2\nsS'DIS'\np216\nI2\nssba(iOWContexts\nContext\np217\n(dp218\nS'noCopy'\np219\n(lp220\nS'orderedDomain'\np221\nasS'encodedDomain'\np222\n(dp223\nS'sepal width'\np224\nI2\nsS'petal width'\np225\nI2\nsS'petal length'\np226\nI2\nsS'sepal length'\np227\nI2\nsS'iris'\np228\nI1\nssS'values'\np229\n(dp230\nS'shownAttributes'\np231\n(lp232\n(S'sepal length'\nI2\ntp233\na(S'sepal width'\nI2\ntp234\na(S'petal length'\nI2\ntp235\nasS'selectedShown'\np236\n(lp237\nssS'time'\np238\nF1157558698.6400001\nsba(iOWContexts\nContext\np239\n(dp240\nS'values'\np241\n(dp242\nS'shownAttributes'\np243\n(lp244\n(S'wT'\nI2\ntp245\na(S'resultCA'\nI2\ntp246\na(S'pT'\nI2\ntp247\nasS'selectedShown'\np248\n(lp249\nssS'time'\np250\nF1144999951.625\nsS'noCopy'\np251\n(lp252\nS'orderedDomain'\np253\nasS'encodedDomain'\np254\n(dp255\nS'wT'\np256\nI2\nsS'pT'\np257\nI2\nsS'resultCA'\np258\nI2\nssba(iOWContexts\nContext\np259\n(dp260\nS'values'\np261\n(dp262\nS'shownAttributes'\np263\n(lp264\n(S'wT1'\nI2\ntp265\na(S'wT2'\nI2\ntp266\na(S'pT'\nI2\ntp267\nasS'selectedShown'\np268\n(lp269\nssS'time'\np270\nF1144757385.296\nsS'noCopy'\np271\n(lp272\nS'orderedDomain'\np273\nasS'encodedDomain'\np274\n(dp275\nS'wT1'\np276\nI2\nsS'wT2'\np277\nI2\nsS'result'\np278\nI2\nsS'pT'\np279\nI2\nssba(iOWContexts\nContext\np280\n(dp281\nS'values'\np282\n(dp283\nS'shownAttributes'\np284\n(lp285\n(S'spo- mid'\nI2\ntp286\na(S'diau f'\nI2\ntp287\na(S'Elu 180'\nI2\ntp288\nasS'selectedShown'\np289\n(lp290\nssS'time'\np291\nF1144404540.5309999\nsS'noCopy'\np292\n(lp293\nS'orderedDomain'\np294\nasS'encodedDomain'\np295\n(dp296\nS'Elu 270'\np297\nI2\nsS'spo5 7'\np298\nI2\nsS'alpha 14'\np299\nI2\nsS'Elu 390'\np300\nI2\nsS'alpha 56'\np301\nI2\nsS'Elu 210'\np302\nI2\nsS'Elu 60'\np303\nI2\nsS'cdc15 130'\np304\nI2\nsS'Elu 330'\np305\nI2\nsS'cdc15 50'\np306\nI2\nsS'spo 11'\np307\nI2\nsS'spo- mid'\np308\nI2\nsS'dtt 15'\np309\nI2\nsS'alpha 91'\np310\nI2\nsS'cdc15 90'\np311\nI2\nsS'alpha 105'\np312\nI2\nsS'dtt 30'\np313\nI2\nsS'spo5 2'\np314\nI2\nsS'Elu 150'\np315\nI2\nsS'cold 20'\np316\nI2\nsS'cdc15 10'\np317\nI2\nsS'alpha 0'\np318\nI2\nsS'alpha 7'\np319\nI2\nsS'heat 80'\np320\nI2\nsS'diau a'\np321\nI2\nsS'diau c'\np322\nI2\nsS'diau b'\np323\nI2\nsS'diau e'\np324\nI2\nsS'diau d'\np325\nI2\nsS'spo5 11'\np326\nI2\nsS'diau f'\np327\nI2\nsS'cold 160'\np328\nI2\nsS'alpha 28'\np329\nI2\nsS'Elu 30'\np330\nI2\nsS'alpha 98'\np331\nI2\nsS'dtt 60'\np332\nI2\nsS'function'\np333\nI1\nsS'heat 40'\np334\nI2\nsS'alpha 42'\np335\nI2\nsS'cdc15 170'\np336\nI2\nsS'alpha 63'\np337\nI2\nsS'Elu 360'\np338\nI2\nsS'heat 160'\np339\nI2\nsS'dtt 120'\np340\nI2\nsS'alpha 49'\np341\nI2\nsS'Elu 180'\np342\nI2\nsS'heat 20'\np343\nI2\nsS'Elu 240'\np344\nI2\nsS'cdc15 70'\np345\nI2\nsS'cdc15 150'\np346\nI2\nsS'alpha 84'\np347\nI2\nsS'cdc15 110'\np348\nI2\nsS'cdc15 290'\np349\nI2\nsS'cold 40'\np350\nI2\nsS'cold 0'\np351\nI2\nsS'Elu 90'\np352\nI2\nsS'cdc15 270'\np353\nI2\nsS'diau g'\np354\nI2\nsS'alpha 112'\np355\nI2\nsS'spo 0'\np356\nI2\nsS'spo 2'\np357\nI2\nsS'spo 5'\np358\nI2\nsS'cdc15 250'\np359\nI2\nsS'spo 7'\np360\nI2\nsS'Elu 120'\np361\nI2\nsS'Elu 0'\np362\nI2\nsS'cdc15 30'\np363\nI2\nsS'Elu 300'\np364\nI2\nsS'alpha 119'\np365\nI2\nsS'cdc15 230'\np366\nI2\nsS'alpha 35'\np367\nI2\nsS'spo 9'\np368\nI2\nsS'spo- early'\np369\nI2\nsS'heat 10'\np370\nI2\nsS'heat 0'\np371\nI2\nsS'cdc15 190'\np372\nI2\nsS'alpha 70'\np373\nI2\nsS'gene'\np374\nI6\nsS'cdc15 210'\np375\nI2\nsS'alpha 77'\np376\nI2\nsS'alpha 21'\np377\nI2\nssba(iOWContexts\nContext\np378\n(dp379\ng292\n(lp380\ng294\nasg295\n(dp381\nS'Elu 270'\np382\nI2\nsS'spo5 7'\np383\nI2\nsS'alpha 14'\np384\nI2\nsS'Elu 390'\np385\nI2\nsS'alpha 56'\np386\nI2\nsS'Elu 210'\np387\nI2\nsS'Elu 60'\np388\nI2\nsS'cdc15 130'\np389\nI2\nsS'Elu 330'\np390\nI2\nsS'cdc15 50'\np391\nI2\nsS'spo 11'\np392\nI2\nsS'spo- mid'\np393\nI2\nsS'dtt 15'\np394\nI2\nsS'alpha 91'\np395\nI2\nsS'cdc15 90'\np396\nI2\nsS'alpha 105'\np397\nI2\nsS'dtt 30'\np398\nI2\nsS'spo5 2'\np399\nI2\nsS'Elu 150'\np400\nI2\nsS'cold 20'\np401\nI2\nsS'cdc15 10'\np402\nI2\nsS'alpha 0'\np403\nI2\nsS'alpha 7'\np404\nI2\nsS'heat 80'\np405\nI2\nsS'diau a'\np406\nI2\nsS'diau c'\np407\nI2\nsS'diau b'\np408\nI2\nsS'diau e'\np409\nI2\nsS'diau d'\np410\nI2\nsS'spo5 11'\np411\nI2\nsS'diau f'\np412\nI2\nsS'cold 160'\np413\nI2\nsS'alpha 28'\np414\nI2\nsS'Elu 30'\np415\nI2\nsS'alpha 98'\np416\nI2\nsS'dtt 60'\np417\nI2\nsS'function'\np418\nI1\nsS'heat 40'\np419\nI2\nsS'alpha 42'\np420\nI2\nsS'cdc15 170'\np421\nI2\nsS'alpha 63'\np422\nI2\nsS'Elu 360'\np423\nI2\nsS'index'\np424\nI2\nsS'dtt 120'\np425\nI2\nsS'heat 160'\np426\nI2\nsS'Elu 180'\np427\nI2\nsS'heat 20'\np428\nI2\nsS'Elu 240'\np429\nI2\nsS'cdc15 70'\np430\nI2\nsS'cdc15 150'\np431\nI2\nsS'alpha 84'\np432\nI2\nsS'cdc15 110'\np433\nI2\nsS'cdc15 290'\np434\nI2\nsS'cold 40'\np435\nI2\nsS'cold 0'\np436\nI2\nsS'Elu 90'\np437\nI2\nsS'cdc15 270'\np438\nI2\nsS'alpha 49'\np439\nI2\nsS'diau g'\np440\nI2\nsS'alpha 112'\np441\nI2\nsS'spo 0'\np442\nI2\nsS'spo 2'\np443\nI2\nsS'spo 5'\np444\nI2\nsS'cdc15 250'\np445\nI2\nsS'spo 7'\np446\nI2\nsS'Elu 120'\np447\nI2\nsS'Elu 0'\np448\nI2\nsS'cdc15 30'\np449\nI2\nsS'Elu 300'\np450\nI2\nsS'alpha 119'\np451\nI2\nsS'cdc15 230'\np452\nI2\nsS'alpha 35'\np453\nI2\nsS'spo 9'\np454\nI2\nsS'spo- early'\np455\nI2\nsS'heat 10'\np456\nI2\nsS'heat 0'\np457\nI2\nsS'cdc15 190'\np458\nI2\nsS'alpha 70'\np459\nI2\nsS'gene'\np460\nI6\nsS'cdc15 210'\np461\nI2\nsS'alpha 77'\np462\nI2\nsS'alpha 21'\np463\nI2\nssg282\n(dp464\ng284\n(lp465\n(S'spo5 2'\nI2\ntp466\na(S'diau g'\nI2\ntp467\na(S'diau f'\nI2\ntp468\na(S'dtt 120'\nI2\ntp469\na(S'spo- early'\nI2\ntp470\na(S'spo- mid'\nI2\ntp471\na(S'alpha 98'\nI2\ntp472\na(S'Elu 90'\nI2\ntp473\nasg289\n(lp474\nssg291\nF1144404540.5309999\nsba(iOWContexts\nContext\np475\n(dp476\nS'noCopy'\np477\n(lp478\nS'orderedDomain'\np479\nasS'encodedDomain'\np480\n(dp481\nS'spec_forms'\np482\nI1\nsS'exclusion'\np483\nI1\nsS'no_nodes'\np484\nI1\nsS'bl_affere'\np485\nI1\nsS'changes_lym'\np486\nI1\nsS'bl_lymph_s'\np487\nI1\nsS'changes_node'\np488\nI1\nsS'defect'\np489\nI1\nsS'lym_enlar'\np490\nI1\nsS'lym_dimin'\np491\nI1\nsS'bl_lymph_c'\np492\nI1\nsS'changes_stru'\np493\nI1\nsS'early_uptake'\np494\nI1\nsS'y'\nI1\nsS'dislocation'\np495\nI1\nsS'regen'\np496\nI1\nsS'by_pass'\np497\nI1\nsS'lymphatics'\np498\nI1\nsS'extravasates'\np499\nI1\nssS'values'\np500\n(dp501\nS'shownAttributes'\np502\n(lp503\n(S'lymphatics'\nI1\ntp504\na(S'bl_affere'\nI1\ntp505\na(S'bl_lymph_c'\nI1\ntp506\na(S'bl_lymph_s'\nI1\ntp507\na(S'by_pass'\nI1\ntp508\na(S'extravasates'\nI1\ntp509\na(S'regen'\nI1\ntp510\na(S'early_uptake'\nI1\ntp511\na(S'lym_dimin'\nI1\ntp512\na(S'lym_enlar'\nI1\ntp513\nasS'selectedShown'\np514\n(lp515\nssS'time'\np516\nF1144397601.3280001\nsba(iOWContexts\nContext\np517\n(dp518\nS'orderedDomain'\np519\n(lp520\n(S'hair'\nI1\ntp521\na(S'feathers'\nI1\ntp522\na(S'eggs'\nI1\ntp523\na(S'milk'\nI1\ntp524\na(S'airborne'\nI1\ntp525\na(S'aquatic'\nI1\ntp526\na(S'predator'\nI1\ntp527\na(S'toothed'\nI1\ntp528\na(S'backbone'\nI1\ntp529\na(S'breathes'\nI1\ntp530\na(S'venomous'\nI1\ntp531\na(S'fins'\nI1\ntp532\na(S'legs'\nI1\ntp533\na(S'tail'\nI1\ntp534\na(S'domestic'\nI1\ntp535\na(S'catsize'\nI1\ntp536\na(S'type'\nI1\ntp537\na(S'name'\nI6\ntp538\nasS'time'\np539\nF1137665941.312\nsS'values'\np540\n(dp541\nS'shownAttributes'\np542\n(lp543\n(S'eggs'\nI1\ntp544\na(S'venomous'\nI1\ntp545\na(S'fins'\nI1\ntp546\na(S'feathers'\nI1\ntp547\na(S'legs'\nI1\ntp548\na(S'tail'\nI1\ntp549\nasS'selectedShown'\np550\n(lp551\nssS'encodedDomain'\np552\n(dp553\nS'fins'\np554\nI1\nsS'aquatic'\np555\nI1\nsS'name'\np556\nI6\nsS'feathers'\np557\nI1\nsS'eggs'\np558\nI1\nsS'backbone'\np559\nI1\nsS'domestic'\np560\nI1\nsS'predator'\np561\nI1\nsS'airborne'\np562\nI1\nsS'hair'\np563\nI1\nsS'toothed'\np564\nI1\nsS'tail'\np565\nI1\nsS'breathes'\np566\nI1\nsS'catsize'\np567\nI1\nsS'venomous'\np568\nI1\nsS'legs'\np569\nI1\nsS'type'\np570\nI1\nsS'milk'\np571\nI1\nssba(iOWContexts\nContext\np572\n(dp573\nS'orderedDomain'\np574\n(lp575\n(S'A1'\nI2\ntp576\na(S'A2'\nI2\ntp577\na(S'A3'\nI2\ntp578\na(S'A4'\nI2\ntp579\na(S'A5'\nI2\ntp580\na(S'A6'\nI2\ntp581\na(S'A7'\nI2\ntp582\na(S'A8'\nI2\ntp583\na(S'A9'\nI2\ntp584\na(S'A10'\nI2\ntp585\na(S'A11'\nI2\ntp586\na(S'A12'\nI2\ntp587\na(S'A13'\nI2\ntp588\na(S'Wine'\nI1\ntp589\nasS'time'\np590\nF1137664272.609\nsS'values'\np591\n(dp592\nS'shownAttributes'\np593\n(lp594\n(S'A3'\nI2\ntp595\na(S'A4'\nI2\ntp596\na(S'A6'\nI2\ntp597\na(S'A7'\nI2\ntp598\na(S'A10'\nI2\ntp599\na(S'A11'\nI2\ntp600\na(S'A12'\nI2\ntp601\na(S'A13'\nI2\ntp602\nag589\nasS'selectedShown'\np603\n(lp604\nssS'encodedDomain'\np605\n(dp606\nS'A11'\np607\nI2\nsS'A10'\np608\nI2\nsS'A13'\np609\nI2\nsS'A12'\np610\nI2\nsS'A1'\np611\nI2\nsS'A3'\np612\nI2\nsS'A2'\np613\nI2\nsS'A5'\np614\nI2\nsS'A4'\np615\nI2\nsS'A7'\np616\nI2\nsS'A6'\np617\nI2\nsS'A9'\np618\nI2\nsS'A8'\np619\nI2\nsS'Wine'\np620\nI1\nssba(iOWContexts\nContext\np621\n(dp622\ng574\n(lp623\n(S'A3'\nI2\ntp624\na(S'A4'\nI2\ntp625\na(S'A5'\nI2\ntp626\na(S'A6'\nI2\ntp627\na(S'A1'\nI2\ntp628\na(S'A2'\nI2\ntp629\na(S'A7'\nI2\ntp630\na(S'A8'\nI2\ntp631\na(S'A10'\nI2\ntp632\na(S'A11'\nI2\ntp633\na(S'A12'\nI2\ntp634\na(S'A13'\nI2\ntp635\na(S'A9'\nI2\ntp636\nasg605\n(dp637\nS'A11'\np638\nI2\nsS'A10'\np639\nI2\nsS'A13'\np640\nI2\nsS'A12'\np641\nI2\nsS'A1'\np642\nI2\nsS'A3'\np643\nI2\nsS'A2'\np644\nI2\nsS'A5'\np645\nI2\nsS'A4'\np646\nI2\nsS'A7'\np647\nI2\nsS'A6'\np648\nI2\nsS'A9'\np649\nI2\nsS'A8'\np650\nI2\nssg591\n(dp651\nS'shownAttributes'\np652\n(lp653\n(S'A13'\nI2\ntp654\na(S'A7'\nI2\ntp655\na(S'A8'\nI2\ntp656\na(S'A10'\nI2\ntp657\nasS'selectedShown'\np658\n(lp659\nssg590\nF1137664272.609\nsbasS'graph.spaceBetweenCells'\np660\nI1\nsS'toolbarSelection'\np661\nI1\nsS'graph.tooltipKind'\np662\nI0\nsS'graph.useDifferentSymbols'\np663\nI0\ns."
p5
sS'Mosaic Display'
p6
S"(dp1\nS'widgetShown'\np2\nI1\nsS'removeUnusedValues'\np3\nI01\nsS'widgetWidth'\np4\nI786\nsS'useBoxes'\np5\nI00\nsS'widgetHeight'\np6\nI544\nsS'widgetXPosition'\np7\nI493\nsS'interiorColoring'\np8\nI1\nsS'boxSize'\np9\nI12\nsS'horizontalDistribution'\np10\nI0\nsS'colorSettings'\np11\n(lp12\n(S'gregor'\n(lp13\n(lp14\na(lp15\na(lp16\nI-16741121\naI-1828324\naI-11686070\naI-33024\naI-205\naI-6795613\naI-5876184\naI-556609\naI-6710887\naatp17\na(S'Default'\n(lp18\n(lp19\na(lp20\na(lp21\nI-16776961\naI-65536\naI-16711936\naI-32768\naI-256\naI-65281\naI-16711681\naI-8388353\naI-16744193\naI-8320\naI-8425664\naI-10736128\naI-16755712\naI-4145152\naI-16744577\naI-8388608\naI-8454017\naatp22\nasS'showAprioriDistributionLines'\np23\nI00\nsS'showSubsetDataBoxes'\np24\nI00\nsS'localContexts'\np25\n(lp26\n(iOWContexts\nContext\np27\n(dp28\nS'values'\np29\n(dp30\nS'manualAttributeValuesDict'\np31\n((dI-2\ntp32\nssS'time'\np33\nF1173696496.7650001\nsS'noCopy'\np34\n(lp35\nS'orderedDomain'\np36\nasS'encodedDomain'\np37\n(dp38\nS'A11'\np39\nI1\nsS'A10'\np40\nI1\nsS'A13'\np41\nI1\nsS'A12'\np42\nI1\nsS'A1'\np43\nI1\nsS'A3'\np44\nI1\nsS'A2'\np45\nI1\nsS'A5'\np46\nI1\nsS'A4'\np47\nI1\nsS'A7'\np48\nI1\nsS'A6'\np49\nI1\nsS'A9'\np50\nI1\nsS'A8'\np51\nI1\nsS'Wine'\np52\nI1\nssba(iOWContexts\nContext\np53\n(dp54\nS'values'\np55\n(dp56\nS'manualAttributeValuesDict'\np57\n((dI-2\ntp58\nssS'time'\np59\nF1173079198.875\nsS'noCopy'\np60\n(lp61\nS'orderedDomain'\np62\nasS'encodedDomain'\np63\n(dp64\nS'aquatic'\np65\nI1\nsS'eggs'\np66\nI1\nsS'domestic'\np67\nI1\nsS'fins'\np68\nI1\nsS'backbone'\np69\nI1\nsS'feathers'\np70\nI1\nsS'predator'\np71\nI1\nsS'airborne'\np72\nI1\nsS'hair'\np73\nI1\nsS'toothed'\np74\nI1\nsS'tail'\np75\nI1\nsS'breathes'\np76\nI1\nsS'catsize'\np77\nI1\nsS'venomous'\np78\nI1\nsS'legs'\np79\nI1\nsS'type'\np80\nI1\nsS'milk'\np81\nI1\nssba(iOWContexts\nContext\np82\n(dp83\nS'values'\np84\n(dp85\nS'manualAttributeValuesDict'\np86\n((dI-2\ntp87\nssS'time'\np88\nF1165944585.8280001\nsS'noCopy'\np89\n(lp90\nS'orderedDomain'\np91\nasS'encodedDomain'\np92\n(dp93\nS'a20'\np94\nI2\nsS'a21'\np95\nI2\nsS'a22'\np96\nI2\nsS'a23'\np97\nI2\nsS'a24'\np98\nI2\nsS'a25'\np99\nI2\nsS'a26'\np100\nI2\nsS'a27'\np101\nI2\nsS'a28'\np102\nI2\nsS'a29'\np103\nI2\nsS'a17'\np104\nI2\nsS'a16'\np105\nI2\nsS'a33'\np106\nI2\nsS'a12'\np107\nI2\nsS'a32'\np108\nI2\nsS'a15'\np109\nI2\nsS'a14'\np110\nI2\nsS'a31'\np111\nI2\nsS'a30'\np112\nI2\nsS'a11'\np113\nI2\nsS'a10'\np114\nI2\nsS'a13'\np115\nI2\nsS'a34'\np116\nI2\nsS'a19'\np117\nI2\nsS'a18'\np118\nI2\nsS'a3'\np119\nI2\nsS'a5'\np120\nI2\nsS'a4'\np121\nI2\nsS'a7'\np122\nI2\nsS'a6'\np123\nI2\nsS'a9'\np124\nI2\nsS'a8'\np125\nI2\nsS'y'\nI1\nssba(iOWContexts\nContext\np126\n(dp127\nS'values'\np128\n(dp129\nS'manualAttributeValuesDict'\np130\n((dI-2\ntp131\nssS'time'\np132\nF1165331376.8280001\nsS'noCopy'\np133\n(lp134\nS'orderedDomain'\np135\nasS'encodedDomain'\np136\n(dp137\nS'fins'\np138\nI1\nsS'aquatic'\np139\nI1\nsS'name'\np140\nI6\nsS'feathers'\np141\nI1\nsS'eggs'\np142\nI1\nsS'backbone'\np143\nI1\nsS'domestic'\np144\nI1\nsS'predator'\np145\nI1\nsS'airborne'\np146\nI1\nsS'hair'\np147\nI1\nsS'toothed'\np148\nI1\nsS'tail'\np149\nI1\nsS'breathes'\np150\nI1\nsS'catsize'\np151\nI1\nsS'venomous'\np152\nI1\nsS'legs'\np153\nI1\nsS'type'\np154\nI1\nsS'milk'\np155\nI1\nssba(iOWContexts\nContext\np156\n(dp157\nS'values'\np158\n(dp159\nS'manualAttributeValuesDict'\np160\n((dI-2\ntp161\nssS'time'\np162\nF1164891487.5\nsS'noCopy'\np163\n(lp164\nS'orderedDomain'\np165\nasS'encodedDomain'\np166\n(dp167\nS'habitat'\np168\nI1\nsS'cap-shape'\np169\nI1\nsS'cap-color'\np170\nI1\nsS'stalk-color-above-ring'\np171\nI1\nsS'stalk-shape'\np172\nI1\nsS'gill-attachment'\np173\nI1\nsS'ring-number'\np174\nI1\nsS'odor'\np175\nI1\nsS'cap-surface'\np176\nI1\nsS'stalk-color-below-ring'\np177\nI1\nsS'stalk-surface-below-ring'\np178\nI1\nsS'gill-spacing'\np179\nI1\nsS'spore-print-color'\np180\nI1\nsS'gill-color'\np181\nI1\nsS'population'\np182\nI1\nsS'veil-color'\np183\nI1\nsS'edible'\np184\nI1\nsS'ring-type'\np185\nI1\nsS'bruises'\np186\nI1\nsS'stalk-surface-above-ring'\np187\nI1\nsS'veil-type'\np188\nI1\nsS'stalk-root'\np189\nI1\nsS'gill-size'\np190\nI1\nssba(iOWContexts\nContext\np191\n(dp192\nS'values'\np193\n(dp194\nS'manualAttributeValuesDict'\np195\n((dI-2\ntp196\nssS'time'\np197\nF1164808045.0150001\nsS'noCopy'\np198\n(lp199\nS'orderedDomain'\np200\nasS'encodedDomain'\np201\n(dp202\nS'sepal width'\np203\nI2\nsS'petal width'\np204\nI2\nsS'petal length'\np205\nI2\nsS'sepal length'\np206\nI2\nsS'iris'\np207\nI1\nssba(iOWContexts\nContext\np208\n(dp209\nS'values'\np210\n(dp211\nS'manualAttributeValuesDict'\np212\n((dI-2\ntp213\nssS'time'\np214\nF1164722855.984\nsS'noCopy'\np215\n(lp216\nS'orderedDomain'\np217\nasS'encodedDomain'\np218\n(dp219\nS'childs'\np220\nI1\nsS'finance'\np221\nI1\nsS'form'\np222\nI1\nsS'housing'\np223\nI1\nsS'has_nurs'\np224\nI1\nsS'parents'\np225\nI1\nsS'social'\np226\nI1\nsS'y'\nI1\nsS'health'\np227\nI1\nssba(iOWContexts\nContext\np228\n(dp229\ng210\n(dp230\nS'manualAttributeValuesDict'\np231\n((dI-2\ntp232\nssg214\nF1164722763.0929999\nsg215\n(lp233\ng217\nasg218\n(dp234\nS'A11'\np235\nI2\nsS'A10'\np236\nI2\nsS'A13'\np237\nI2\nsS'A12'\np238\nI2\nsS'A1'\np239\nI2\nsS'A3'\np240\nI2\nsS'A2'\np241\nI2\nsS'A5'\np242\nI2\nsS'A4'\np243\nI2\nsS'A7'\np244\nI2\nsS'A6'\np245\nI2\nsS'A9'\np246\nI2\nsS'A8'\np247\nI2\nsS'Wine'\np248\nI1\nssba(iOWContexts\nContext\np249\n(dp250\nS'values'\np251\n(dp252\nS'manualAttributeValuesDict'\np253\n((dI-2\ntp254\nssS'time'\np255\nF1163592878.421\nsS'noCopy'\np256\n(lp257\nS'orderedDomain'\np258\nasS'encodedDomain'\np259\n(dp260\nS'ssurfar'\np261\nI1\nsS'population'\np262\nI1\nsS'edible'\np263\nI1\nsS'habitat'\np264\nI1\nsS'veilcol'\np265\nI1\nsS'ssurfbr'\np266\nI1\nsS'bruises'\np267\nI1\nsS'capsurf'\np268\nI1\nsS'gillcol'\np269\nI1\nsS'scolar'\np270\nI1\nsS'gillattach'\np271\nI1\nsS'sporeprint'\np272\nI1\nsS'ringtype'\np273\nI1\nsS'ringnumber'\np274\nI1\nsS'capshape'\np275\nI1\nsS'scolbr'\np276\nI1\nsS'gillsize'\np277\nI1\nsS'capcol'\np278\nI1\nsS'odor'\np279\nI1\nsS'stalkshape'\np280\nI1\nsS'gillspace'\np281\nI1\nssbasS'selectedSchemaIndex'\np282\nI0\nsS'cellspace'\np283\nI3\nsS'widgetYPosition'\np284\nI17\nsS'showAprioriDistributionBoxes'\np285\nI0\ns."
p7
sS'Polyviz'
p8
S"(dp1\nS'autoSendSelection'\np2\nI01\nsS'widgetXPosition'\np3\nI415\nsS'widgetYPosition'\np4\nI10\nsS'addProjectedPositions'\np5\nI2\nsS'widgetWidth'\np6\nI919\nsS'selectedSchemaIndex'\np7\nI1\nsS'graph.pointWidth'\np8\nI11\nsS'graph.showFilledSymbols'\np9\nI01\nsS'widgetHeight'\np10\nI703\nsS'graph.scaleFactor'\np11\nF1\nsS'colorSettings'\np12\n(lp13\n(lp14\nS'gregor'\np15\na(lp16\n(lp17\n(S'Canvas'\nI-1\ntp18\naa(lp19\n(S'contPalette'\n(I-1\nI-16777216\nI0\nttp20\naa(lp21\nI-16776961\naI-65536\naI-32768\naI-16711936\naI-256\naI-65281\naI-16711681\naI-8388353\naI-16744193\naI-8320\naI-8425664\naI-10736128\naI-16755712\naI-4145152\naI-16744577\naI-8388608\naI-8454017\naaaa(S'Default'\n(lp22\n(lp23\n(S'Canvas'\nI-1\ntp24\naa(lp25\n(S'contPalette'\n(I-1\nI-16777216\nI0\nttp26\naa(lp27\nI-16776961\naI-65536\naI-16711936\naI-32768\naI-256\naI-65281\naI-16711681\naI-8388353\naI-16744193\naI-8320\naI-8425664\naI-10736128\naI-16755712\naI-4145152\naI-16744577\naI-8388608\naI-8454017\naatp28\nasS'graph.globalValueScaling'\np29\nI0\nsS'graph.lineLength'\np30\nI2\nsS'graph.jitterSize'\np31\nI1\nsS'graph.useDifferentColors'\np32\nI01\nsS'graph.tooltipValue'\np33\nI1\nsS'widgetShown'\np34\nI1\nsS'showAllAttributes'\np35\nI0\nsS'graph.showLegend'\np36\nI1\nsS'graph.optimizedDrawing'\np37\nI1\nsS'localContexts'\np38\n(lp39\n(iOWContexts\nContext\np40\n(dp41\nS'values'\np42\n(dp43\nS'shownAttributes'\np44\n(lp45\n(S'spore volume'\nI2\ntp46\na(S'spore shape'\nI2\ntp47\na(S'microcyst'\nI1\ntp48\na(S'macrocyst'\nI1\ntp49\na(S'aggr streaming'\nI2\ntp50\na(S'slug migr'\nI2\ntp51\na(S'aggr size'\nI2\ntp52\na(S'sorocarp habit'\nI1\ntp53\na(S'branching'\nI1\ntp54\na(S'stalk height'\nI2\ntp55\na(S'stalk diameter'\nI2\ntp56\na(S'sori diameter'\nI2\ntp57\na(S'support'\nI1\ntp58\na(S'cell diameter'\nI2\ntp59\na(S'cellular stalk'\nI1\ntp60\na(S'tip shape'\nI1\ntp61\na(S'phototropism'\nI2\ntp62\nasS'selectedShown'\np63\n(lp64\nssS'time'\np65\nF1166517778.296\nsS'noCopy'\np66\n(lp67\nS'orderedDomain'\np68\nasS'encodedDomain'\np69\n(dp70\nS'microcyst'\np71\nI1\nsS'branching'\np72\nI1\nsS'cellular stalk'\np73\nI1\nsS'slug migr'\np74\nI2\nsS'group'\np75\nI1\nsS'spore volume'\np76\nI2\nsS'support'\np77\nI1\nsS'aggr size'\np78\nI2\nsS'stalk diameter'\np79\nI2\nsS'Species'\np80\nI6\nsS'cell diameter'\np81\nI2\nsS'tip shape'\np82\nI1\nsS'stalk height'\np83\nI2\nsS'sori diameter'\np84\nI2\nsS'macrocyst'\np85\nI1\nsS'aggr streaming'\np86\nI2\nsS'spore shape'\np87\nI2\nsS'phototropism'\np88\nI2\nsS'sorocarp habit'\np89\nI1\nssba(iOWContexts\nContext\np90\n(dp91\nS'noCopy'\np92\n(lp93\nS'orderedDomain'\np94\nasS'encodedDomain'\np95\n(dp96\nS'ssurfar'\np97\nI1\nsS'gillspace'\np98\nI1\nsS'edible'\np99\nI1\nsS'habitat'\np100\nI1\nsS'veilcol'\np101\nI1\nsS'ssurfbr'\np102\nI1\nsS'bruises'\np103\nI1\nsS'capsurf'\np104\nI1\nsS'gillcol'\np105\nI1\nsS'odor'\np106\nI1\nsS'scolar'\np107\nI1\nsS'gillattach'\np108\nI1\nsS'stalkshape'\np109\nI1\nsS'ringtype'\np110\nI1\nsS'ringnumber'\np111\nI1\nsS'scolbr'\np112\nI1\nsS'gillsize'\np113\nI1\nsS'capcol'\np114\nI1\nsS'sporeprint'\np115\nI1\nsS'capshape'\np116\nI1\nsS'population'\np117\nI1\nssS'values'\np118\n(dp119\nS'shownAttributes'\np120\n(lp121\n(S'capshape'\nI1\ntp122\na(S'capsurf'\nI1\ntp123\na(S'capcol'\nI1\ntp124\na(S'bruises'\nI1\ntp125\na(S'odor'\nI1\ntp126\na(S'gillattach'\nI1\ntp127\na(S'gillspace'\nI1\ntp128\na(S'gillsize'\nI1\ntp129\na(S'gillcol'\nI1\ntp130\na(S'stalkshape'\nI1\ntp131\nasS'selectedShown'\np132\n(lp133\nssS'time'\np134\nF1163594039.734\nsba(iOWContexts\nContext\np135\n(dp136\nS'noCopy'\np137\n(lp138\nS'orderedDomain'\np139\nasS'encodedDomain'\np140\n(dp141\nS'highway-mpg'\np142\nI2\nsS'compression-ratio'\np143\nI2\nsS'height'\np144\nI2\nsS'stroke'\np145\nI2\nsS'horsepower'\np146\nI2\nsS'bore'\np147\nI2\nsS'num-of-cylinders'\np148\nI1\nsS'engine-location'\np149\nI1\nsS'make'\np150\nI1\nsS'normalized-losses'\np151\nI2\nsS'width'\np152\nI2\nsS'wheel-base'\np153\nI2\nsS'symboling'\np154\nI1\nsS'body-style'\np155\nI1\nsS'engine-size'\np156\nI2\nsS'drive-wheels'\np157\nI1\nsS'curb-weight'\np158\nI2\nsS'price'\np159\nI1\nsS'fuel-system'\np160\nI1\nsS'num-of-doors'\np161\nI1\nsS'fuel-type'\np162\nI1\nsS'aspiration'\np163\nI1\nsS'engine-type'\np164\nI1\nsS'length'\np165\nI2\nsS'city-mpg'\np166\nI2\nsS'peak-rpm'\np167\nI2\nssS'values'\np168\n(dp169\nS'shownAttributes'\np170\n(lp171\n(S'engine-location'\nI1\ntp172\na(S'length'\nI2\ntp173\na(S'curb-weight'\nI2\ntp174\na(S'num-of-cylinders'\nI1\ntp175\na(S'fuel-system'\nI1\ntp176\na(S'peak-rpm'\nI2\ntp177\na(S'highway-mpg'\nI2\ntp178\nasS'selectedShown'\np179\n(lp180\nssS'time'\np181\nF1157973758.562\nsba(iOWContexts\nContext\np182\n(dp183\nS'values'\np184\n(dp185\nS'shownAttributes'\np186\n(lp187\n(S'LSTAT'\nI2\ntp188\na(S'RM'\nI2\ntp189\na(S'CHAS'\nI2\ntp190\na(S'DIS'\nI2\ntp191\na(S'NOX'\nI2\ntp192\na(S'AGE'\nI2\ntp193\nasS'selectedShown'\np194\n(lp195\nssS'time'\np196\nF1157969557.125\nsS'noCopy'\np197\n(lp198\nS'orderedDomain'\np199\nasS'encodedDomain'\np200\n(dp201\nS'CRIM'\np202\nI2\nsS'ZN'\np203\nI2\nsS'B'\nI2\nsS'LSTAT'\np204\nI2\nsS'AGE'\np205\nI2\nsS'TAX'\np206\nI2\nsS'RAD'\np207\nI2\nsS'CHAS'\np208\nI2\nsS'NOX'\np209\nI2\nsS'MEDV'\np210\nI1\nsS'RM'\np211\nI2\nsS'INDUS'\np212\nI2\nsS'PTRATIO'\np213\nI2\nsS'DIS'\np214\nI2\nssba(iOWContexts\nContext\np215\n(dp216\nS'noCopy'\np217\n(lp218\nS'orderedDomain'\np219\nasS'encodedDomain'\np220\n(dp221\nS'sepal width'\np222\nI2\nsS'petal width'\np223\nI2\nsS'petal length'\np224\nI2\nsS'sepal length'\np225\nI2\nsS'iris'\np226\nI1\nssS'values'\np227\n(dp228\nS'shownAttributes'\np229\n(lp230\n(S'sepal length'\nI2\ntp231\na(S'sepal width'\nI2\ntp232\na(S'petal length'\nI2\ntp233\nasS'selectedShown'\np234\n(lp235\nssS'time'\np236\nF1157558698.6400001\nsba(iOWContexts\nContext\np237\n(dp238\nS'values'\np239\n(dp240\nS'shownAttributes'\np241\n(lp242\n(S'wT'\nI2\ntp243\na(S'resultCA'\nI2\ntp244\na(S'pT'\nI2\ntp245\nasS'selectedShown'\np246\n(lp247\nssS'time'\np248\nF1144999951.625\nsS'noCopy'\np249\n(lp250\nS'orderedDomain'\np251\nasS'encodedDomain'\np252\n(dp253\nS'wT'\np254\nI2\nsS'pT'\np255\nI2\nsS'resultCA'\np256\nI2\nssba(iOWContexts\nContext\np257\n(dp258\nS'values'\np259\n(dp260\nS'shownAttributes'\np261\n(lp262\n(S'wT1'\nI2\ntp263\na(S'wT2'\nI2\ntp264\na(S'pT'\nI2\ntp265\nasS'selectedShown'\np266\n(lp267\nssS'time'\np268\nF1144757385.296\nsS'noCopy'\np269\n(lp270\nS'orderedDomain'\np271\nasS'encodedDomain'\np272\n(dp273\nS'wT1'\np274\nI2\nsS'wT2'\np275\nI2\nsS'result'\np276\nI2\nsS'pT'\np277\nI2\nssba(iOWContexts\nContext\np278\n(dp279\nS'values'\np280\n(dp281\nS'shownAttributes'\np282\n(lp283\n(S'spo- mid'\nI2\ntp284\na(S'diau f'\nI2\ntp285\na(S'Elu 180'\nI2\ntp286\nasS'selectedShown'\np287\n(lp288\nssS'time'\np289\nF1144404540.5309999\nsS'noCopy'\np290\n(lp291\nS'orderedDomain'\np292\nasS'encodedDomain'\np293\n(dp294\nS'Elu 270'\np295\nI2\nsS'spo5 7'\np296\nI2\nsS'alpha 14'\np297\nI2\nsS'Elu 390'\np298\nI2\nsS'alpha 56'\np299\nI2\nsS'Elu 210'\np300\nI2\nsS'Elu 60'\np301\nI2\nsS'cdc15 130'\np302\nI2\nsS'Elu 330'\np303\nI2\nsS'cdc15 50'\np304\nI2\nsS'spo 11'\np305\nI2\nsS'spo- mid'\np306\nI2\nsS'dtt 15'\np307\nI2\nsS'alpha 91'\np308\nI2\nsS'cdc15 90'\np309\nI2\nsS'alpha 105'\np310\nI2\nsS'dtt 30'\np311\nI2\nsS'spo5 2'\np312\nI2\nsS'Elu 150'\np313\nI2\nsS'cold 20'\np314\nI2\nsS'cdc15 10'\np315\nI2\nsS'alpha 0'\np316\nI2\nsS'alpha 7'\np317\nI2\nsS'heat 80'\np318\nI2\nsS'diau a'\np319\nI2\nsS'diau c'\np320\nI2\nsS'diau b'\np321\nI2\nsS'diau e'\np322\nI2\nsS'diau d'\np323\nI2\nsS'spo5 11'\np324\nI2\nsS'diau f'\np325\nI2\nsS'cold 160'\np326\nI2\nsS'alpha 28'\np327\nI2\nsS'Elu 30'\np328\nI2\nsS'alpha 98'\np329\nI2\nsS'dtt 60'\np330\nI2\nsS'function'\np331\nI1\nsS'heat 40'\np332\nI2\nsS'alpha 42'\np333\nI2\nsS'cdc15 170'\np334\nI2\nsS'alpha 63'\np335\nI2\nsS'Elu 360'\np336\nI2\nsS'heat 160'\np337\nI2\nsS'dtt 120'\np338\nI2\nsS'alpha 49'\np339\nI2\nsS'Elu 180'\np340\nI2\nsS'heat 20'\np341\nI2\nsS'Elu 240'\np342\nI2\nsS'cdc15 70'\np343\nI2\nsS'cdc15 150'\np344\nI2\nsS'alpha 84'\np345\nI2\nsS'cdc15 110'\np346\nI2\nsS'cdc15 290'\np347\nI2\nsS'cold 40'\np348\nI2\nsS'cold 0'\np349\nI2\nsS'Elu 90'\np350\nI2\nsS'cdc15 270'\np351\nI2\nsS'diau g'\np352\nI2\nsS'alpha 112'\np353\nI2\nsS'spo 0'\np354\nI2\nsS'spo 2'\np355\nI2\nsS'spo 5'\np356\nI2\nsS'cdc15 250'\np357\nI2\nsS'spo 7'\np358\nI2\nsS'Elu 120'\np359\nI2\nsS'Elu 0'\np360\nI2\nsS'cdc15 30'\np361\nI2\nsS'Elu 300'\np362\nI2\nsS'alpha 119'\np363\nI2\nsS'cdc15 230'\np364\nI2\nsS'alpha 35'\np365\nI2\nsS'spo 9'\np366\nI2\nsS'spo- early'\np367\nI2\nsS'heat 10'\np368\nI2\nsS'heat 0'\np369\nI2\nsS'cdc15 190'\np370\nI2\nsS'alpha 70'\np371\nI2\nsS'gene'\np372\nI6\nsS'cdc15 210'\np373\nI2\nsS'alpha 77'\np374\nI2\nsS'alpha 21'\np375\nI2\nssba(iOWContexts\nContext\np376\n(dp377\ng290\n(lp378\ng292\nasg293\n(dp379\nS'Elu 270'\np380\nI2\nsS'spo5 7'\np381\nI2\nsS'alpha 14'\np382\nI2\nsS'Elu 390'\np383\nI2\nsS'alpha 56'\np384\nI2\nsS'Elu 210'\np385\nI2\nsS'Elu 60'\np386\nI2\nsS'cdc15 130'\np387\nI2\nsS'Elu 330'\np388\nI2\nsS'cdc15 50'\np389\nI2\nsS'spo 11'\np390\nI2\nsS'spo- mid'\np391\nI2\nsS'dtt 15'\np392\nI2\nsS'alpha 91'\np393\nI2\nsS'cdc15 90'\np394\nI2\nsS'alpha 105'\np395\nI2\nsS'dtt 30'\np396\nI2\nsS'spo5 2'\np397\nI2\nsS'Elu 150'\np398\nI2\nsS'cold 20'\np399\nI2\nsS'cdc15 10'\np400\nI2\nsS'alpha 0'\np401\nI2\nsS'alpha 7'\np402\nI2\nsS'heat 80'\np403\nI2\nsS'diau a'\np404\nI2\nsS'diau c'\np405\nI2\nsS'diau b'\np406\nI2\nsS'diau e'\np407\nI2\nsS'diau d'\np408\nI2\nsS'spo5 11'\np409\nI2\nsS'diau f'\np410\nI2\nsS'cold 160'\np411\nI2\nsS'alpha 28'\np412\nI2\nsS'Elu 30'\np413\nI2\nsS'alpha 98'\np414\nI2\nsS'dtt 60'\np415\nI2\nsS'function'\np416\nI1\nsS'heat 40'\np417\nI2\nsS'alpha 42'\np418\nI2\nsS'cdc15 170'\np419\nI2\nsS'alpha 63'\np420\nI2\nsS'Elu 360'\np421\nI2\nsS'index'\np422\nI2\nsS'dtt 120'\np423\nI2\nsS'heat 160'\np424\nI2\nsS'Elu 180'\np425\nI2\nsS'heat 20'\np426\nI2\nsS'Elu 240'\np427\nI2\nsS'cdc15 70'\np428\nI2\nsS'cdc15 150'\np429\nI2\nsS'alpha 84'\np430\nI2\nsS'cdc15 110'\np431\nI2\nsS'cdc15 290'\np432\nI2\nsS'cold 40'\np433\nI2\nsS'cold 0'\np434\nI2\nsS'Elu 90'\np435\nI2\nsS'cdc15 270'\np436\nI2\nsS'alpha 49'\np437\nI2\nsS'diau g'\np438\nI2\nsS'alpha 112'\np439\nI2\nsS'spo 0'\np440\nI2\nsS'spo 2'\np441\nI2\nsS'spo 5'\np442\nI2\nsS'cdc15 250'\np443\nI2\nsS'spo 7'\np444\nI2\nsS'Elu 120'\np445\nI2\nsS'Elu 0'\np446\nI2\nsS'cdc15 30'\np447\nI2\nsS'Elu 300'\np448\nI2\nsS'alpha 119'\np449\nI2\nsS'cdc15 230'\np450\nI2\nsS'alpha 35'\np451\nI2\nsS'spo 9'\np452\nI2\nsS'spo- early'\np453\nI2\nsS'heat 10'\np454\nI2\nsS'heat 0'\np455\nI2\nsS'cdc15 190'\np456\nI2\nsS'alpha 70'\np457\nI2\nsS'gene'\np458\nI6\nsS'cdc15 210'\np459\nI2\nsS'alpha 77'\np460\nI2\nsS'alpha 21'\np461\nI2\nssg280\n(dp462\ng282\n(lp463\n(S'spo5 2'\nI2\ntp464\na(S'diau g'\nI2\ntp465\na(S'diau f'\nI2\ntp466\na(S'dtt 120'\nI2\ntp467\na(S'spo- early'\nI2\ntp468\na(S'spo- mid'\nI2\ntp469\na(S'alpha 98'\nI2\ntp470\na(S'Elu 90'\nI2\ntp471\nasg287\n(lp472\nssg289\nF1144404540.5309999\nsba(iOWContexts\nContext\np473\n(dp474\nS'noCopy'\np475\n(lp476\nS'orderedDomain'\np477\nasS'encodedDomain'\np478\n(dp479\nS'spec_forms'\np480\nI1\nsS'exclusion'\np481\nI1\nsS'no_nodes'\np482\nI1\nsS'bl_affere'\np483\nI1\nsS'changes_lym'\np484\nI1\nsS'bl_lymph_s'\np485\nI1\nsS'changes_node'\np486\nI1\nsS'defect'\np487\nI1\nsS'lym_enlar'\np488\nI1\nsS'lym_dimin'\np489\nI1\nsS'bl_lymph_c'\np490\nI1\nsS'changes_stru'\np491\nI1\nsS'early_uptake'\np492\nI1\nsS'y'\nI1\nsS'dislocation'\np493\nI1\nsS'regen'\np494\nI1\nsS'by_pass'\np495\nI1\nsS'lymphatics'\np496\nI1\nsS'extravasates'\np497\nI1\nssS'values'\np498\n(dp499\nS'shownAttributes'\np500\n(lp501\n(S'lymphatics'\nI1\ntp502\na(S'bl_affere'\nI1\ntp503\na(S'bl_lymph_c'\nI1\ntp504\na(S'bl_lymph_s'\nI1\ntp505\na(S'by_pass'\nI1\ntp506\na(S'extravasates'\nI1\ntp507\na(S'regen'\nI1\ntp508\na(S'early_uptake'\nI1\ntp509\na(S'lym_dimin'\nI1\ntp510\na(S'lym_enlar'\nI1\ntp511\nasS'selectedShown'\np512\n(lp513\nssS'time'\np514\nF1144397601.3280001\nsba(iOWContexts\nContext\np515\n(dp516\nS'orderedDomain'\np517\n(lp518\n(S'hair'\nI1\ntp519\na(S'feathers'\nI1\ntp520\na(S'eggs'\nI1\ntp521\na(S'milk'\nI1\ntp522\na(S'airborne'\nI1\ntp523\na(S'aquatic'\nI1\ntp524\na(S'predator'\nI1\ntp525\na(S'toothed'\nI1\ntp526\na(S'backbone'\nI1\ntp527\na(S'breathes'\nI1\ntp528\na(S'venomous'\nI1\ntp529\na(S'fins'\nI1\ntp530\na(S'legs'\nI1\ntp531\na(S'tail'\nI1\ntp532\na(S'domestic'\nI1\ntp533\na(S'catsize'\nI1\ntp534\na(S'type'\nI1\ntp535\na(S'name'\nI6\ntp536\nasS'time'\np537\nF1137665941.312\nsS'values'\np538\n(dp539\nS'shownAttributes'\np540\n(lp541\n(S'eggs'\nI1\ntp542\na(S'venomous'\nI1\ntp543\na(S'fins'\nI1\ntp544\na(S'feathers'\nI1\ntp545\na(S'legs'\nI1\ntp546\na(S'tail'\nI1\ntp547\nasS'selectedShown'\np548\n(lp549\nssS'encodedDomain'\np550\n(dp551\nS'fins'\np552\nI1\nsS'aquatic'\np553\nI1\nsS'name'\np554\nI6\nsS'feathers'\np555\nI1\nsS'eggs'\np556\nI1\nsS'backbone'\np557\nI1\nsS'domestic'\np558\nI1\nsS'predator'\np559\nI1\nsS'airborne'\np560\nI1\nsS'hair'\np561\nI1\nsS'toothed'\np562\nI1\nsS'tail'\np563\nI1\nsS'breathes'\np564\nI1\nsS'catsize'\np565\nI1\nsS'venomous'\np566\nI1\nsS'legs'\np567\nI1\nsS'type'\np568\nI1\nsS'milk'\np569\nI1\nssba(iOWContexts\nContext\np570\n(dp571\nS'orderedDomain'\np572\n(lp573\n(S'A1'\nI2\ntp574\na(S'A2'\nI2\ntp575\na(S'A3'\nI2\ntp576\na(S'A4'\nI2\ntp577\na(S'A5'\nI2\ntp578\na(S'A6'\nI2\ntp579\na(S'A7'\nI2\ntp580\na(S'A8'\nI2\ntp581\na(S'A9'\nI2\ntp582\na(S'A10'\nI2\ntp583\na(S'A11'\nI2\ntp584\na(S'A12'\nI2\ntp585\na(S'A13'\nI2\ntp586\na(S'Wine'\nI1\ntp587\nasS'time'\np588\nF1137664272.609\nsS'values'\np589\n(dp590\nS'shownAttributes'\np591\n(lp592\n(S'A3'\nI2\ntp593\na(S'A4'\nI2\ntp594\na(S'A6'\nI2\ntp595\na(S'A7'\nI2\ntp596\na(S'A10'\nI2\ntp597\na(S'A11'\nI2\ntp598\na(S'A12'\nI2\ntp599\na(S'A13'\nI2\ntp600\nag587\nasS'selectedShown'\np601\n(lp602\nssS'encodedDomain'\np603\n(dp604\nS'A11'\np605\nI2\nsS'A10'\np606\nI2\nsS'A13'\np607\nI2\nsS'A12'\np608\nI2\nsS'A1'\np609\nI2\nsS'A3'\np610\nI2\nsS'A2'\np611\nI2\nsS'A5'\np612\nI2\nsS'A4'\np613\nI2\nsS'A7'\np614\nI2\nsS'A6'\np615\nI2\nsS'A9'\np616\nI2\nsS'A8'\np617\nI2\nsS'Wine'\np618\nI1\nssba(iOWContexts\nContext\np619\n(dp620\ng572\n(lp621\n(S'A3'\nI2\ntp622\na(S'A4'\nI2\ntp623\na(S'A5'\nI2\ntp624\na(S'A6'\nI2\ntp625\na(S'A1'\nI2\ntp626\na(S'A2'\nI2\ntp627\na(S'A7'\nI2\ntp628\na(S'A8'\nI2\ntp629\na(S'A10'\nI2\ntp630\na(S'A11'\nI2\ntp631\na(S'A12'\nI2\ntp632\na(S'A13'\nI2\ntp633\na(S'A9'\nI2\ntp634\nasg603\n(dp635\nS'A11'\np636\nI2\nsS'A10'\np637\nI2\nsS'A13'\np638\nI2\nsS'A12'\np639\nI2\nsS'A1'\np640\nI2\nsS'A3'\np641\nI2\nsS'A2'\np642\nI2\nsS'A5'\np643\nI2\nsS'A4'\np644\nI2\nsS'A7'\np645\nI2\nsS'A6'\np646\nI2\nsS'A9'\np647\nI2\nsS'A8'\np648\nI2\nssg589\n(dp649\nS'shownAttributes'\np650\n(lp651\n(S'A13'\nI2\ntp652\na(S'A7'\nI2\ntp653\na(S'A8'\nI2\ntp654\na(S'A10'\nI2\ntp655\nasS'selectedShown'\np656\n(lp657\nssg588\nF1137664272.609\nsbasS'toolbarSelection'\np658\nI0\nsS'graph.tooltipKind'\np659\nI0\nsS'graph.useDifferentSymbols'\np660\nI00\nsS'VizRankLearnerName'\np661\nS'VizRank (Polyviz)'\np662\ns."
p9
sS'File'
p10
S"(dp1\nS'widgetHeight'\np2\nI162\nsS'widgetXPosition'\np3\nI84\nsS'widgetYPosition'\np4\nI76\nsS'widgetShown'\np5\nI1\nsS'widgetWidth'\np6\nI318\nsS'recentFiles'\np7\n(lp8\nS'E:/Development/Python23/Lib/site-packages/Orange/doc/datasets/wine.tab'\np9\naS'E:/Development/Python23/Lib/site-packages/Orange/doc/datasets/zoo.tab'\np10\naS'E:/Development/Python23/Lib/site-packages/Orange/WidgetDebugging/datasets/always_unknown_attribute___values_defined.tab'\np11\naS'E:/Development/Python23/Lib/site-packages/Orange/WidgetDebugging/datasets/always_unknown_attribute___continuous.tab'\np12\naS'E:/Development/Python23/Lib/site-packages/Orange/WidgetDebugging/datasets/lenses_two_class.tab'\np13\naS'E:/Development/Python23/Lib/site-packages/Orange/WidgetDebugging/datasets/lenses.tab'\np14\nas."
p11
sS'Scatterplot'
p12
S"(dp1\nS'autoSendSelection'\np2\nI1\nsS'graph.showDistributions'\np3\nI0\nsS'graph.showAxisScale'\np4\nI01\nsS'widgetXPosition'\np5\nI399\nsS'widgetYPosition'\np6\nI-5\nsS'widgetWidth'\np7\nI874\nsS'selectedSchemaIndex'\np8\nI0\nsS'graph.pointWidth'\np9\nI11\nsS'graph.showFilledSymbols'\np10\nI01\nsS'showGridlines'\np11\nI00\nsS'graph.jitterContinuous'\np12\nI00\nsS'localContexts'\np13\n(lp14\n(iOWContexts\nContext\np15\n(dp16\nS'values'\np17\n(dp18\nS'attrLabel'\np19\n(S''\nI-1\ntp20\nsS'attrSize'\np21\n(S''\nI-1\ntp22\nsS'attrShape'\np23\n(S''\nI-1\ntp24\nsS'attrX'\np25\n(S'xVar'\nI2\ntp26\nsS'attrY'\np27\n(S'yVar'\nI2\ntp28\nssS'selectionPolygons'\np29\n(lp30\nsS'encodedDomain'\np31\n(dp32\nS'type'\np33\nI1\nsS'ExampleWeight'\np34\nI2\nsS'yVar'\np35\nI2\nsS'xVar'\np36\nI2\nssS'noCopy'\np37\n(lp38\nS'orderedDomain'\np39\nasS'time'\np40\nF1173086255.5780001\nsba(iOWContexts\nContext\np41\n(dp42\nS'noCopy'\np43\n(lp44\nS'orderedDomain'\np45\nasS'selectionPolygons'\np46\n(lp47\nsS'time'\np48\nF1166517779.4059999\nsS'values'\np49\n(dp50\nS'attrLabel'\np51\n(S''\nI-1\ntp52\nsS'attrX'\np53\n(S'spore volume'\nI2\ntp54\nsS'attrShape'\np55\n(S''\nI-1\ntp56\nsS'attrSize'\np57\n(S''\nI-1\ntp58\nsS'attrY'\np59\n(S'spore shape'\nI2\ntp60\nssS'encodedDomain'\np61\n(dp62\nS'microcyst'\np63\nI1\nsS'branching'\np64\nI1\nsS'spore shape'\np65\nI2\nsS'group'\np66\nI1\nsS'spore volume'\np67\nI2\nsS'sori diameter'\np68\nI2\nsS'support'\np69\nI1\nsS'aggr size'\np70\nI2\nsS'stalk diameter'\np71\nI2\nsS'aggr streaming'\np72\nI2\nsS'sorocarp habit'\np73\nI1\nsS'cell diameter'\np74\nI2\nsS'stalk height'\np75\nI2\nsS'tip shape'\np76\nI1\nsS'macrocyst'\np77\nI1\nsS'cellular stalk'\np78\nI1\nsS'slug migr'\np79\nI2\nsS'phototropism'\np80\nI2\nsS'Species'\np81\nI6\nssba(iOWContexts\nContext\np82\n(dp83\nS'values'\np84\n(dp85\nS'attrLabel'\np86\n(S''\nI-1\ntp87\nsS'attrSize'\np88\n(S''\nI-1\ntp89\nsS'attrShape'\np90\n(S''\nI-1\ntp91\nsS'attrX'\np92\n(S'parents'\nI1\ntp93\nsS'attrY'\np94\n(S'has_nurs'\nI1\ntp95\nssS'selectionPolygons'\np96\n(lp97\n((lp98\nF0.99623027149249233\naF0.99623027149249233\naF1.0003837212187536\naF1.0003837212187536\naF0.99623027149249233\na(lp99\nF1.9616350456747966\naF1.957611577171315\naF1.957611577171315\naF1.9616350456747966\naF1.9616350456747966\natp100\na((lp101\nF0.99746508087057006\naF0.99746508087057006\naF1.0018430413928454\naF1.0018430413928454\naF0.99746508087057006\na(lp102\nF1.9726516856248064\naF1.9702567638965434\naF1.9702567638965434\naF1.9726516856248064\naF1.9726516856248064\natp103\nasS'encodedDomain'\np104\n(dp105\nS'childs'\np106\nI1\nsS'finance'\np107\nI1\nsS'form'\np108\nI1\nsS'housing'\np109\nI1\nsS'has_nurs'\np110\nI1\nsS'parents'\np111\nI1\nsS'social'\np112\nI1\nsS'y'\nI1\nsS'health'\np113\nI1\nssS'noCopy'\np114\n(lp115\nS'orderedDomain'\np116\nasS'time'\np117\nF1164786390.8429999\nsba(iOWContexts\nContext\np118\n(dp119\nS'values'\np120\n(dp121\nS'attrLabel'\np122\n(S''\nI-1\ntp123\nsS'attrSize'\np124\n(S''\nI-1\ntp125\nsS'attrShape'\np126\n(S''\nI-1\ntp127\nsS'attrX'\np128\n(S'capshape'\nI1\ntp129\nsS'attrY'\np130\n(S'capsurf'\nI1\ntp131\nssS'selectionPolygons'\np132\n(lp133\nsS'encodedDomain'\np134\n(dp135\nS'ssurfar'\np136\nI1\nsS'population'\np137\nI1\nsS'edible'\np138\nI1\nsS'habitat'\np139\nI1\nsS'veilcol'\np140\nI1\nsS'ssurfbr'\np141\nI1\nsS'bruises'\np142\nI1\nsS'capsurf'\np143\nI1\nsS'gillcol'\np144\nI1\nsS'scolar'\np145\nI1\nsS'gillattach'\np146\nI1\nsS'sporeprint'\np147\nI1\nsS'ringtype'\np148\nI1\nsS'ringnumber'\np149\nI1\nsS'capshape'\np150\nI1\nsS'scolbr'\np151\nI1\nsS'gillsize'\np152\nI1\nsS'capcol'\np153\nI1\nsS'odor'\np154\nI1\nsS'stalkshape'\np155\nI1\nsS'gillspace'\np156\nI1\nssS'noCopy'\np157\n(lp158\nS'orderedDomain'\np159\nasS'time'\np160\nF1163593977.187\nsba(iOWContexts\nContext\np161\n(dp162\nS'noCopy'\np163\n(lp164\nS'orderedDomain'\np165\nasS'selectionPolygons'\np166\n(lp167\nsS'time'\np168\nF1162215524.1400001\nsS'values'\np169\n(dp170\nS'attrLabel'\np171\n(S''\nI-1\ntp172\nsS'attrX'\np173\n(S'marital-status'\nI1\ntp174\nsS'attrShape'\np175\n(S''\nI-1\ntp176\nsS'attrSize'\np177\n(S''\nI-1\ntp178\nsS'attrY'\np179\n(S'education'\nI1\ntp180\nssS'encodedDomain'\np181\n(dp182\nS'workclass'\np183\nI1\nsS'relationship'\np184\nI1\nsS'age'\np185\nI2\nsS'capital-gain'\np186\nI2\nsS'sex'\np187\nI1\nsS'education-num'\np188\nI2\nsS'hours-per-week'\np189\nI2\nsS'race'\np190\nI1\nsS'native-country'\np191\nI1\nsS'y'\nI1\nsS'capital-loss'\np192\nI2\nsS'education'\np193\nI1\nsS'fnlwgt'\np194\nI2\nsS'marital-status'\np195\nI1\nsS'occupation'\np196\nI1\nssba(iOWContexts\nContext\np197\n(dp198\nS'values'\np199\n(dp200\nS'attrLabel'\np201\n(S''\nI-1\ntp202\nsS'attrSize'\np203\n(S''\nI-1\ntp204\nsS'attrShape'\np205\n(S''\nI-1\ntp206\nsS'attrX'\np207\n(S'A4'\nI1\ntp208\nsS'attrY'\np209\n(S'B9'\nI1\ntp210\nssS'selectionPolygons'\np211\n(lp212\nsS'encodedDomain'\np213\n(dp214\nS'B4'\np215\nI1\nsS'B10'\np216\nI1\nsS'B3'\np217\nI1\nsS'B6'\np218\nI1\nsS'A1'\np219\nI1\nsS'B5'\np220\nI1\nsS'A3'\np221\nI1\nsS'B7'\np222\nI1\nsS'A5'\np223\nI1\nsS'B1'\np224\nI1\nsS'B2'\np225\nI1\nsS'A6'\np226\nI1\nsS'y'\nI1\nsS'A2'\np227\nI1\nsS'B8'\np228\nI1\nsS'B9'\np229\nI1\nsS'A4'\np230\nI1\nssS'noCopy'\np231\n(lp232\nS'orderedDomain'\np233\nasS'time'\np234\nF1159875331.9679999\nsba(iOWContexts\nContext\np235\n(dp236\nS'noCopy'\np237\n(lp238\nS'orderedDomain'\np239\nasS'selectionPolygons'\np240\n(lp241\nsS'time'\np242\nF1159259428.25\nsS'values'\np243\n(dp244\nS'attrLabel'\np245\n(S''\nI-1\ntp246\nsS'attrX'\np247\n(S'CA'\nI2\ntp248\nsS'attrShape'\np249\n(S''\nI-1\ntp250\nsS'attrSize'\np251\n(S''\nI-1\ntp252\nsS'attrY'\np253\n(S'APCC'\nI2\ntp254\nssS'encodedDomain'\np255\n(dp256\nS'APCC'\np257\nI2\nsS'CA'\np258\nI2\nsS'Brier'\np259\nI2\nssba(iOWContexts\nContext\np260\n(dp261\nS'values'\np262\n(dp263\nS'attrLabel'\np264\n(S''\nI-1\ntp265\nsS'attrSize'\np266\n(S''\nI-1\ntp267\nsS'attrShape'\np268\n(S''\nI-1\ntp269\nsS'attrX'\np270\n(S'symboling'\nI1\ntp271\nsS'attrY'\np272\n(S'normalized-losses'\nI2\ntp273\nssS'selectionPolygons'\np274\n(lp275\nsS'encodedDomain'\np276\n(dp277\nS'highway-mpg'\np278\nI2\nsS'compression-ratio'\np279\nI2\nsS'height'\np280\nI2\nsS'stroke'\np281\nI2\nsS'horsepower'\np282\nI2\nsS'bore'\np283\nI2\nsS'num-of-cylinders'\np284\nI1\nsS'engine-location'\np285\nI1\nsS'make'\np286\nI1\nsS'normalized-losses'\np287\nI2\nsS'width'\np288\nI2\nsS'wheel-base'\np289\nI2\nsS'symboling'\np290\nI1\nsS'body-style'\np291\nI1\nsS'engine-size'\np292\nI2\nsS'drive-wheels'\np293\nI1\nsS'curb-weight'\np294\nI2\nsS'price'\np295\nI1\nsS'fuel-system'\np296\nI1\nsS'num-of-doors'\np297\nI1\nsS'fuel-type'\np298\nI1\nsS'aspiration'\np299\nI1\nsS'engine-type'\np300\nI1\nsS'length'\np301\nI2\nsS'city-mpg'\np302\nI2\nsS'peak-rpm'\np303\nI2\nssS'noCopy'\np304\n(lp305\nS'orderedDomain'\np306\nasS'time'\np307\nF1157972577.312\nsba(iOWContexts\nContext\np308\n(dp309\nS'noCopy'\np310\n(lp311\nS'orderedDomain'\np312\nasS'selectionPolygons'\np313\n(lp314\nsS'time'\np315\nF1157964236.609\nsS'values'\np316\n(dp317\nS'attrLabel'\np318\n(S''\nI-1\ntp319\nsS'attrX'\np320\n(S'B'\nI2\ntp321\nsS'attrShape'\np322\n(S''\nI-1\ntp323\nsS'attrSize'\np324\n(S''\nI-1\ntp325\nsS'attrY'\np326\n(S'LSTAT'\nI2\ntp327\nssS'encodedDomain'\np328\n(dp329\nS'CRIM'\np330\nI2\nsS'ZN'\np331\nI2\nsS'B'\nI2\nsS'LSTAT'\np332\nI2\nsS'AGE'\np333\nI2\nsS'TAX'\np334\nI2\nsS'RAD'\np335\nI2\nsS'CHAS'\np336\nI2\nsS'NOX'\np337\nI2\nsS'RM'\np338\nI2\nsS'MEDV'\np339\nI1\nsS'INDUS'\np340\nI2\nsS'PTRATIO'\np341\nI2\nsS'DIS'\np342\nI2\nssba(iOWContexts\nContext\np343\n(dp344\nS'values'\np345\n(dp346\nS'attrLabel'\np347\n(S''\nI-1\ntp348\nsS'attrSize'\np349\n(S''\nI-1\ntp350\nsS'attrShape'\np351\n(S''\nI-1\ntp352\nsS'attrX'\np353\n(S'attr2047'\nI2\ntp354\nsS'attrY'\np355\n(S'attr276'\nI2\ntp356\nssS'selectionPolygons'\np357\n(lp358\nsS'encodedDomain'\np359\n(dp360\nS'attr2047'\np361\nI2\nsS'index'\np362\nI2\nsS'attr276'\np363\nI2\nsS'class'\np364\nI1\nssS'noCopy'\np365\n(lp366\nS'orderedDomain'\np367\nasS'time'\np368\nF1157561834.312\nsba(iOWContexts\nContext\np369\n(dp370\nS'values'\np371\n(dp372\nS'attrLabel'\np373\n(S''\nI-1\ntp374\nsS'attrSize'\np375\n(S''\nI-1\ntp376\nsS'attrShape'\np377\n(S''\nI-1\ntp378\nsS'attrX'\np379\n(S'sepal length'\nI2\ntp380\nsS'attrY'\np381\n(S'sepal width'\nI2\ntp382\nssS'selectionPolygons'\np383\n(lp384\nsS'encodedDomain'\np385\n(dp386\nS'petal length'\np387\nI2\nsS'petal width'\np388\nI2\nsS'sepal width'\np389\nI2\nsS'sepal length'\np390\nI2\nsS'iris'\np391\nI1\nssS'noCopy'\np392\n(lp393\nS'orderedDomain'\np394\nasS'time'\np395\nF1157558620.984\nsba(iOWContexts\nContext\np396\n(dp397\ng392\n(lp398\ng394\nasg383\n(lp399\nsg395\nF1157558620.984\nsg371\n(dp400\nS'attrLabel'\np401\n(S''\nI-1\ntp402\nsS'attrX'\np403\n(S'X Positions'\nI2\ntp404\nsS'attrShape'\np405\n(S''\nI-1\ntp406\nsS'attrSize'\np407\n(S''\nI-1\ntp408\nsS'attrY'\np409\n(S'Y Positions'\nI2\ntp410\nssg385\n(dp411\nS'iris'\np412\nI1\nsS'X Positions'\np413\nI2\nsS'sepal width'\np414\nI2\nsS'petal length'\np415\nI2\nsS'Y Positions'\np416\nI2\nsS'petal width'\np417\nI2\nsS'sepal length'\np418\nI2\nssba(iOWContexts\nContext\np419\n(dp420\nS'values'\np421\n(dp422\ng19\n(S''\nI-1\ntp423\nsg21\n(S''\nI-1\ntp424\nsg23\n(S''\nI-1\ntp425\nsg25\n(S'legs'\nI1\ntp426\nsg27\n(S'catsize'\nI1\ntp427\nssS'selectionPolygons'\np428\n(lp429\n((lp430\nF0.9374465870829507\naF0.9374465870829507\naF0.99147315580042861\naF0.99147315580042861\naF0.9374465870829507\na(lp431\nF-0.040815768041654946\naF-0.052732350114442994\naF-0.052732350114442994\naF-0.040815768041654946\naF-0.040815768041654946\natp432\nasS'encodedDomain'\np433\n(dp434\nS'fins'\np435\nI1\nsS'aquatic'\np436\nI1\nsS'name'\np437\nI6\nsS'feathers'\np438\nI1\nsS'eggs'\np439\nI1\nsS'backbone'\np440\nI1\nsS'domestic'\np441\nI1\nsS'predator'\np442\nI1\nsS'airborne'\np443\nI1\nsS'hair'\np444\nI1\nsS'toothed'\np445\nI1\nsS'tail'\np446\nI1\nsS'breathes'\np447\nI1\nsS'catsize'\np448\nI1\nsS'venomous'\np449\nI1\nsS'legs'\np450\nI1\nsS'type'\np451\nI1\nsS'milk'\np452\nI1\nssS'noCopy'\np453\n(lp454\nS'orderedDomain'\np455\nasS'time'\np456\nF1152796303.5150001\nsba(iOWContexts\nContext\np457\n(dp458\ng421\n(dp459\nS'attrLabel'\np460\n(S''\nI-1\ntp461\nsS'attrSize'\np462\n(S''\nI-1\ntp463\nsS'attrShape'\np464\n(S''\nI-1\ntp465\nsS'attrX'\np466\n(S'hair'\nI1\ntp467\nsS'attrY'\np468\n(S'feathers'\nI1\ntp469\nssg428\n(lp470\nsg433\n(dp471\nS'aquatic'\np472\nI1\nsS'fins'\np473\nI1\nsS'domestic'\np474\nI1\nsS'eggs'\np475\nI1\nsS'backbone'\np476\nI1\nsS'feathers'\np477\nI1\nsS'predator'\np478\nI1\nsS'airborne'\np479\nI1\nsS'hair'\np480\nI1\nsS'toothed'\np481\nI1\nsS'tail'\np482\nI1\nsS'breathes'\np483\nI1\nsS'catsize'\np484\nI1\nsS'venomous'\np485\nI1\nsS'legs'\np486\nI1\nsS'type'\np487\nI1\nsS'milk'\np488\nI1\nssg453\n(lp489\ng455\nasg456\nF1152796303.5150001\nsba(iOWContexts\nContext\np490\n(dp491\nS'values'\np492\n(dp493\nS'attrLabel'\np494\n(S''\nI-1\ntp495\nsS'attrSize'\np496\n(S''\nI-1\ntp497\nsS'attrShape'\np498\n(S''\nI-1\ntp499\nsS'attrX'\np500\n(S'Human'\nI2\ntp501\nsS'attrY'\np502\n(S'SVM'\nI2\ntp503\nssS'selectionPolygons'\np504\n(lp505\nsS'encodedDomain'\np506\n(dp507\nS'SVM'\np508\nI2\nsS'k-NN_sqrt'\np509\nI2\nsS'Name'\np510\nI6\nsS'ProjIndex'\np511\nI2\nsS'Interval'\np512\nI6\nsS'Tree'\np513\nI2\nsS'IPAdress'\np514\nI6\nsS'k-NN'\np515\nI2\nsS'Human'\np516\nI2\nsS'Time'\np517\nI2\nssS'noCopy'\np518\n(lp519\nS'orderedDomain'\np520\nasS'time'\np521\nF1151320645.3280001\nsba(iOWContexts\nContext\np522\n(dp523\nS'values'\np524\n(dp525\ng201\n(S''\nI-1\ntp526\nsg203\n(S''\nI-1\ntp527\nsg205\n(S''\nI-1\ntp528\nsg207\n(S'e'\nI1\ntp529\nsg209\n(S'b'\nI1\ntp530\nssS'selectionPolygons'\np531\n(lp532\nsS'encodedDomain'\np533\n(dp534\nS'a'\nI1\nsS'c'\nI1\nsS'b'\nI1\nsS'e'\nI1\nsS'd'\nI1\nsS'f'\nI1\nsS'y'\nI1\nssS'noCopy'\np535\n(lp536\nS'orderedDomain'\np537\nasS'time'\np538\nF1150363227.75\nsba(iOWContexts\nContext\np539\n(dp540\nS'noCopy'\np541\n(lp542\nS'orderedDomain'\np543\nasS'selectionPolygons'\np544\n(lp545\nsS'time'\np546\nF1144757379.2809999\nsS'values'\np547\n(dp548\nS'attrLabel'\np549\n(S''\nI-1\ntp550\nsS'attrX'\np551\n(S'wT1'\nI2\ntp552\nsS'attrShape'\np553\n(S''\nI-1\ntp554\nsS'attrSize'\np555\n(S'wT2'\nI2\ntp556\nsS'attrY'\np557\n(S'pT'\nI2\ntp558\nssS'encodedDomain'\np559\n(dp560\nS'wT1'\np561\nI2\nsS'wT2'\np562\nI2\nsS'result'\np563\nI2\nsS'pT'\np564\nI2\nssba(iOWContexts\nContext\np565\n(dp566\nS'values'\np567\n(dp568\nS'attrLabel'\np569\n(S''\nI-1\ntp570\nsS'attrSize'\np571\n(S''\nI-1\ntp572\nsS'attrShape'\np573\n(S''\nI-1\ntp574\nsS'attrX'\np575\n(S'wT'\np576\nI2\ntp577\nsS'attrY'\np578\n(S'pT'\np579\nI2\ntp580\nssS'selectionPolygons'\np581\n(lp582\nsS'encodedDomain'\np583\n(dp584\nS'resultCA'\np585\nI2\nsS'X Positions'\np586\nI2\nsS'pT'\np587\nI2\nsS'Y Positions'\np588\nI2\nsS'wT'\np589\nI2\nssS'noCopy'\np590\n(lp591\nS'orderedDomain'\np592\nasS'time'\np593\nF1144663354.1559999\nsba(iOWContexts\nContext\np594\n(dp595\ng590\n(lp596\ng592\nasg581\n(lp597\nsg593\nF1144663354.1559999\nsg567\n(dp598\ng549\n(S''\nI-1\ntp599\nsg551\n(g576\nI2\ntp600\nsg553\n(S''\nI-1\ntp601\nsg555\n(S''\nI-1\ntp602\nsg557\n(g579\nI2\ntp603\nssg583\n(dp604\nS'wT'\np605\nI2\nsS'pT'\np606\nI2\nsS'resultCA'\np607\nI2\nssba(iOWContexts\nContext\np608\n(dp609\nS'noCopy'\np610\n(lp611\nS'orderedDomain'\np612\nasS'selectionPolygons'\np613\n(lp614\nsS'time'\np615\nF1144394895.2809999\nsS'values'\np616\n(dp617\nS'attrLabel'\np618\n(S''\nI-1\ntp619\nsS'attrX'\np620\n(S'TKL'\nI1\ntp621\nsS'attrShape'\np622\n(S''\nI-1\ntp623\nsS'attrSize'\np624\n(S''\nI-1\ntp625\nsS'attrY'\np626\n(S'VELIKOST'\nI2\ntp627\nssS'encodedDomain'\np628\n(dp629\nS'DNA.PLOI'\np630\nI1\nsS'MEN1'\np631\nI1\nsS'BEZG1'\np632\nI1\nsS'INVAZIJA'\np633\nI1\nsS'KAT.D'\np634\nI2\nsS'GRAD1'\np635\nI1\nsS'KAT.L'\np636\nI2\nsS'STAROST'\np637\nI2\nsS'TKL'\np638\nI1\nsS'HR1'\np639\nI1\nsS'PREGL.BE'\np640\nI2\nsS'PROGRES'\np641\nI1\nsS'UPAR'\np642\nI2\nsS'VEL.S'\np643\nI1\nsS'STEVILO'\np644\nI2\nsS'PAI2CUT'\np645\nI1\nsS'PAI_2'\np646\nI2\nsS'PAI_1'\np647\nI2\nsS'INV1'\np648\nI1\nsS'TIPTU1'\np649\nI1\nsS'UPA3'\np650\nI1\nsS'UPA'\np651\nI2\nsS'VELIKOST'\np652\nI2\nsS'GRADUS'\np653\nI1\nsS'VRSTA_KT'\np654\nI1\nsS'PAI1.14'\np655\nI1\nsS'FAZAS'\np656\nI2\nsS'ZDRAVLJE'\np657\nI1\nsS'VEL1'\np658\nI1\nssba(iOWContexts\nContext\np659\n(dp660\nS'values'\np661\n(dp662\nS'attrLabel'\np663\n(S''\nI-1\ntp664\nsS'attrSize'\np665\n(S''\nI-1\ntp666\nsS'attrShape'\np667\n(S''\nI-1\ntp668\nsS'attrX'\np669\n(S'cdc15 50'\nI2\ntp670\nsS'attrY'\np671\n(S'alpha 0'\nI2\ntp672\nssS'selectionPolygons'\np673\n(lp674\nsS'encodedDomain'\np675\n(dp676\nS'Elu 270'\np677\nI2\nsS'spo5 7'\np678\nI2\nsS'alpha 0'\np679\nI2\nsS'alpha 56'\np680\nI2\nsS'Elu 210'\np681\nI2\nsS'Elu 60'\np682\nI2\nsS'cold 160'\np683\nI2\nsS'Elu 330'\np684\nI2\nsS'cold 0'\np685\nI2\nsS'spo- mid'\np686\nI2\nsS'dtt 15'\np687\nI2\nsS'alpha 91'\np688\nI2\nsS'Elu 90'\np689\nI2\nsS'alpha 105'\np690\nI2\nsS'dtt 30'\np691\nI2\nsS'spo5 2'\np692\nI2\nsS'Elu 150'\np693\nI2\nsS'gene'\np694\nI6\nsS'cold 20'\np695\nI2\nsS'Elu 120'\np696\nI2\nsS'Elu 390'\np697\nI2\nsS'alpha 7'\np698\nI2\nsS'heat 80'\np699\nI2\nsS'diau a'\np700\nI2\nsS'diau c'\np701\nI2\nsS'diau b'\np702\nI2\nsS'diau e'\np703\nI2\nsS'diau d'\np704\nI2\nsS'spo5 11'\np705\nI2\nsS'diau f'\np706\nI2\nsS'cold 40'\np707\nI2\nsS'alpha 28'\np708\nI2\nsS'Elu 30'\np709\nI2\nsS'alpha 98'\np710\nI2\nsS'function'\np711\nI1\nsS'heat 40'\np712\nI2\nsS'alpha 42'\np713\nI2\nsS'cdc15 170'\np714\nI2\nsS'alpha 63'\np715\nI2\nsS'Elu 360'\np716\nI2\nsS'index'\np717\nI2\nsS'dtt 120'\np718\nI2\nsS'heat 160'\np719\nI2\nsS'Elu 180'\np720\nI2\nsS'heat 20'\np721\nI2\nsS'Elu 240'\np722\nI2\nsS'cdc15 150'\np723\nI2\nsS'alpha 84'\np724\nI2\nsS'cdc15 110'\np725\nI2\nsS'cdc15 290'\np726\nI2\nsS'alpha 119'\np727\nI2\nsS'cdc15 130'\np728\nI2\nsS'spo 11'\np729\nI2\nsS'cdc15 90'\np730\nI2\nsS'cdc15 270'\np731\nI2\nsS'alpha 49'\np732\nI2\nsS'diau g'\np733\nI2\nsS'alpha 112'\np734\nI2\nsS'spo 0'\np735\nI2\nsS'spo 2'\np736\nI2\nsS'spo 5'\np737\nI2\nsS'spo 7'\np738\nI2\nsS'cdc15 250'\np739\nI2\nsS'spo 9'\np740\nI2\nsS'Elu 0'\np741\nI2\nsS'cdc15 30'\np742\nI2\nsS'cdc15 190'\np743\nI2\nsS'Elu 300'\np744\nI2\nsS'cdc15 50'\np745\nI2\nsS'cdc15 230'\np746\nI2\nsS'alpha 35'\np747\nI2\nsS'cdc15 10'\np748\nI2\nsS'spo- early'\np749\nI2\nsS'heat 10'\np750\nI2\nsS'heat 0'\np751\nI2\nsS'cdc15 210'\np752\nI2\nsS'cdc15 70'\np753\nI2\nsS'alpha 70'\np754\nI2\nsS'alpha 14'\np755\nI2\nsS'dtt 60'\np756\nI2\nsS'alpha 77'\np757\nI2\nsS'alpha 21'\np758\nI2\nssS'noCopy'\np759\n(lp760\nS'orderedDomain'\np761\nasS'time'\np762\nF1144309609.375\nsba(iOWContexts\nContext\np763\n(dp764\ng759\n(lp765\ng761\nasg673\n(lp766\n((lp767\nF-0.1163834425909766\naF-0.1163834425909766\naF0.099495171472944066\naF0.099495171472944066\naF-0.1163834425909766\na(lp768\nF-0.18039085502283914\naF-0.31626285237925394\naF-0.31626285237925394\naF-0.18039085502283914\naF-0.18039085502283914\natp769\nasg762\nF1144309609.375\nsg661\n(dp770\nS'attrLabel'\np771\n(S''\nI-1\ntp772\nsS'attrX'\np773\n(S'spo- mid'\nI2\ntp774\nsS'attrShape'\np775\n(S''\nI-1\ntp776\nsS'attrSize'\np777\n(S''\nI-1\ntp778\nsS'attrY'\np779\n(S'diau f'\nI2\ntp780\nssg675\n(dp781\nS'Elu 270'\np782\nI2\nsS'spo5 7'\np783\nI2\nsS'alpha 14'\np784\nI2\nsS'Elu 390'\np785\nI2\nsS'alpha 56'\np786\nI2\nsS'Elu 210'\np787\nI2\nsS'Elu 60'\np788\nI2\nsS'cdc15 130'\np789\nI2\nsS'Elu 330'\np790\nI2\nsS'cdc15 50'\np791\nI2\nsS'spo 11'\np792\nI2\nsS'spo- mid'\np793\nI2\nsS'dtt 15'\np794\nI2\nsS'alpha 91'\np795\nI2\nsS'cdc15 90'\np796\nI2\nsS'alpha 105'\np797\nI2\nsS'dtt 30'\np798\nI2\nsS'spo5 2'\np799\nI2\nsS'Elu 150'\np800\nI2\nsS'cold 20'\np801\nI2\nsS'cdc15 10'\np802\nI2\nsS'alpha 0'\np803\nI2\nsS'alpha 7'\np804\nI2\nsS'heat 80'\np805\nI2\nsS'diau a'\np806\nI2\nsS'diau c'\np807\nI2\nsS'diau b'\np808\nI2\nsS'diau e'\np809\nI2\nsS'diau d'\np810\nI2\nsS'spo5 11'\np811\nI2\nsS'diau f'\np812\nI2\nsS'cold 40'\np813\nI2\nsS'alpha 28'\np814\nI2\nsS'Elu 30'\np815\nI2\nsS'alpha 98'\np816\nI2\nsS'function'\np817\nI1\nsS'heat 40'\np818\nI2\nsS'alpha 42'\np819\nI2\nsS'cdc15 170'\np820\nI2\nsS'alpha 63'\np821\nI2\nsS'Elu 360'\np822\nI2\nsS'heat 160'\np823\nI2\nsS'dtt 120'\np824\nI2\nsS'alpha 49'\np825\nI2\nsS'Elu 180'\np826\nI2\nsS'heat 20'\np827\nI2\nsS'Elu 240'\np828\nI2\nsS'cdc15 70'\np829\nI2\nsS'cdc15 150'\np830\nI2\nsS'alpha 84'\np831\nI2\nsS'cdc15 110'\np832\nI2\nsS'cdc15 290'\np833\nI2\nsS'cold 160'\np834\nI2\nsS'cold 0'\np835\nI2\nsS'Elu 90'\np836\nI2\nsS'cdc15 270'\np837\nI2\nsS'diau g'\np838\nI2\nsS'alpha 112'\np839\nI2\nsS'spo 0'\np840\nI2\nsS'spo 2'\np841\nI2\nsS'spo 5'\np842\nI2\nsS'cdc15 250'\np843\nI2\nsS'spo 7'\np844\nI2\nsS'spo 9'\np845\nI2\nsS'Elu 0'\np846\nI2\nsS'cdc15 30'\np847\nI2\nsS'Elu 300'\np848\nI2\nsS'alpha 119'\np849\nI2\nsS'cdc15 230'\np850\nI2\nsS'alpha 35'\np851\nI2\nsS'Elu 120'\np852\nI2\nsS'spo- early'\np853\nI2\nsS'heat 10'\np854\nI2\nsS'heat 0'\np855\nI2\nsS'cdc15 210'\np856\nI2\nsS'cdc15 190'\np857\nI2\nsS'alpha 70'\np858\nI2\nsS'gene'\np859\nI6\nsS'dtt 60'\np860\nI2\nsS'alpha 77'\np861\nI2\nsS'alpha 21'\np862\nI2\nssba(iOWContexts\nContext\np863\n(dp864\ng661\n(dp865\ng569\n(S''\nI-1\ntp866\nsg571\n(S''\nI-1\ntp867\nsg573\n(S''\nI-1\ntp868\nsg575\n(S'diau e'\nI2\ntp869\nsg578\n(S'cdc15 230'\nI2\ntp870\nssg673\n(lp871\nsg675\n(dp872\nS'Elu 270'\np873\nI2\nsS'spo5 7'\np874\nI2\nsS'Elu 390'\np875\nI2\nsS'alpha 56'\np876\nI2\nsS'Elu 210'\np877\nI2\nsS'Elu 60'\np878\nI2\nsS'cold 160'\np879\nI2\nsS'Elu 330'\np880\nI2\nsS'heat 10'\np881\nI2\nsS'cold 0'\np882\nI2\nsS'cdc15 170'\np883\nI2\nsS'dtt 15'\np884\nI2\nsS'spo 9'\np885\nI2\nsS'alpha 91'\np886\nI2\nsS'alpha 112'\np887\nI2\nsS'alpha 105'\np888\nI2\nsS'dtt 30'\np889\nI2\nsS'spo5 2'\np890\nI2\nsS'Elu 150'\np891\nI2\nsS'gene'\np892\nI6\nsS'cold 20'\np893\nI2\nsS'alpha 0'\np894\nI2\nsS'alpha 7'\np895\nI2\nsS'heat 80'\np896\nI2\nsS'Y Positions'\np897\nI2\nsS'diau a'\np898\nI2\nsS'diau c'\np899\nI2\nsS'diau b'\np900\nI2\nsS'diau e'\np901\nI2\nsS'diau d'\np902\nI2\nsS'spo5 11'\np903\nI2\nsS'diau f'\np904\nI2\nsS'cold 40'\np905\nI2\nsS'alpha 28'\np906\nI2\nsS'Elu 30'\np907\nI2\nsS'alpha 98'\np908\nI2\nsS'dtt 60'\np909\nI2\nsS'function'\np910\nI1\nsS'heat 40'\np911\nI2\nsS'alpha 42'\np912\nI2\nsS'X Positions'\np913\nI2\nsS'alpha 63'\np914\nI2\nsS'Elu 360'\np915\nI2\nsS'heat 160'\np916\nI2\nsS'dtt 120'\np917\nI2\nsS'alpha 49'\np918\nI2\nsS'Elu 180'\np919\nI2\nsS'heat 20'\np920\nI2\nsS'Elu 240'\np921\nI2\nsS'cdc15 150'\np922\nI2\nsS'alpha 84'\np923\nI2\nsS'cdc15 110'\np924\nI2\nsS'cdc15 290'\np925\nI2\nsS'alpha 119'\np926\nI2\nsS'cdc15 130'\np927\nI2\nsS'spo 11'\np928\nI2\nsS'cdc15 90'\np929\nI2\nsS'cdc15 270'\np930\nI2\nsS'Elu 90'\np931\nI2\nsS'diau g'\np932\nI2\nsS'cdc15 230'\np933\nI2\nsS'spo 0'\np934\nI2\nsS'spo 2'\np935\nI2\nsS'spo 5'\np936\nI2\nsS'spo 7'\np937\nI2\nsS'cdc15 250'\np938\nI2\nsS'Elu 120'\np939\nI2\nsS'Elu 0'\np940\nI2\nsS'cdc15 30'\np941\nI2\nsS'cdc15 190'\np942\nI2\nsS'Elu 300'\np943\nI2\nsS'cdc15 50'\np944\nI2\nsS'alpha 35'\np945\nI2\nsS'cdc15 10'\np946\nI2\nsS'spo- early'\np947\nI2\nsS'spo- mid'\np948\nI2\nsS'heat 0'\np949\nI2\nsS'cdc15 70'\np950\nI2\nsS'alpha 70'\np951\nI2\nsS'alpha 14'\np952\nI2\nsS'cdc15 210'\np953\nI2\nsS'alpha 77'\np954\nI2\nsS'alpha 21'\np955\nI2\nssg759\n(lp956\ng761\nasg762\nF1144309609.375\nsba(iOWContexts\nContext\np957\n(dp958\nS'noCopy'\np959\n(lp960\nS'orderedDomain'\np961\nasS'selectionPolygons'\np962\n(lp963\nsS'time'\np964\nF1144156540.0780001\nsS'values'\np965\n(dp966\nS'attrLabel'\np967\n(S''\nI-1\ntp968\nsS'attrX'\np969\n(S'age'\np970\nI1\ntp971\nsS'attrShape'\np972\n(S''\nI-1\ntp973\nsS'attrSize'\np974\n(S''\nI-1\ntp975\nsS'attrY'\np976\n(S'age'\np977\nI1\ntp978\nssS'encodedDomain'\np979\n(dp980\nS'astigmatic'\np981\nI1\nsS'tear_rate'\np982\nI1\nsS'age'\np983\nI1\nsS'prescription'\np984\nI1\nsS'lenses'\np985\nI1\nssba(iOWContexts\nContext\np986\n(dp987\ng965\n(dp988\ng494\n(S''\nI-1\ntp989\nsg496\n(S''\nI-1\ntp990\nsg498\n(S''\nI-1\ntp991\nsg500\n(g970\nI1\ntp992\nsg502\n(g977\nI1\ntp993\nssg962\n(lp994\nsg979\n(dp995\nS'status'\np996\nI1\nsS'age'\np997\nI1\nsS'survived'\np998\nI1\nsS'sex'\np999\nI1\nssg959\n(lp1000\ng961\nasg964\nF1144156540.0780001\nsba(iOWContexts\nContext\np1001\n(dp1002\ng965\n(dp1003\nS'attrLabel'\np1004\n(S''\nI-1\ntp1005\nsS'attrSize'\np1006\n(S''\nI-1\ntp1007\nsS'attrShape'\np1008\n(S''\nI-1\ntp1009\nsS'attrX'\np1010\n(S'A7'\nI2\ntp1011\nsS'attrY'\np1012\n(S'A10'\nI2\ntp1013\nssg962\n(lp1014\n((lp1015\nF5.2001232093531788\na(lp1016\nF7.7733685317670487\natp1017\nasg979\n(dp1018\nS'A11'\np1019\nI2\nsS'A10'\np1020\nI2\nsS'A13'\np1021\nI2\nsS'A12'\np1022\nI2\nsS'A1'\np1023\nI2\nsS'A3'\np1024\nI2\nsS'A2'\np1025\nI2\nsS'A5'\np1026\nI2\nsS'A4'\np1027\nI2\nsS'A7'\np1028\nI2\nsS'A6'\np1029\nI2\nsS'A9'\np1030\nI2\nsS'A8'\np1031\nI2\nsS'Wine'\np1032\nI1\nssg959\n(lp1033\ng961\nasg964\nF1144156461.9530001\nsba(iOWContexts\nContext\np1034\n(dp1035\ng959\n(lp1036\ng961\nasg962\n(lp1037\nsg964\nF1144156461.9530001\nsg965\n(dp1038\nS'attrLabel'\np1039\n(S''\nI-1\ntp1040\nsS'attrX'\np1041\n(S'A7'\nI2\ntp1042\nsS'attrShape'\np1043\n(S''\nI-1\ntp1044\nsS'attrSize'\np1045\n(S''\nI-1\ntp1046\nsS'attrY'\np1047\n(S'A10'\nI2\ntp1048\nssg979\n(dp1049\nS'A11'\np1050\nI2\nsS'A10'\np1051\nI2\nsS'A13'\np1052\nI2\nsS'A12'\np1053\nI2\nsS'A1'\np1054\nI2\nsS'A3'\np1055\nI2\nsS'A2'\np1056\nI2\nsS'A5'\np1057\nI2\nsS'A4'\np1058\nI2\nsS'A7'\np1059\nI2\nsS'A6'\np1060\nI2\nsS'A9'\np1061\nI2\nsS'A8'\np1062\nI2\nssba(iOWContexts\nContext\np1063\n(dp1064\ng965\n(dp1065\nS'attrLabel'\np1066\n(S'Y Positions'\nI2\ntp1067\nsS'attrSize'\np1068\n(S''\nI-1\ntp1069\nsS'attrShape'\np1070\n(S''\nI-1\ntp1071\nsS'attrX'\np1072\n(S'A1'\nI2\ntp1073\nsS'attrY'\np1074\n(S'A2'\nI2\ntp1075\nssg962\n(lp1076\nsg979\n(dp1077\nS'X Positions'\np1078\nI2\nsS'A11'\np1079\nI2\nsS'A10'\np1080\nI2\nsS'A13'\np1081\nI2\nsS'A12'\np1082\nI2\nsS'Y Positions'\np1083\nI2\nsS'A1'\np1084\nI2\nsS'A3'\np1085\nI2\nsS'A2'\np1086\nI2\nsS'A5'\np1087\nI2\nsS'A4'\np1088\nI2\nsS'A7'\np1089\nI2\nsS'A6'\np1090\nI2\nsS'A9'\np1091\nI2\nsS'A8'\np1092\nI2\nsS'Wine'\np1093\nI1\nssg959\n(lp1094\ng961\nasg964\nF1144156461.9530001\nsbasS'showProbabilitiesDetails'\np1095\nI01\nsS'graph.jitterSize'\np1096\nF10\nsS'graph.showProbabilities'\np1097\nI00\nsS'graph.showXaxisTitle'\np1098\nI01\nsS'widgetShown'\np1099\nI1\nsS'graph.showLegend'\np1100\nI01\nsS'graph.showYLaxisTitle'\np1101\nI01\nsS'toolbarSelection'\np1102\nI1\nsS'widgetHeight'\np1103\nI715\nsS'colorSettings'\np1104\n(lp1105\n(S'barve'\n(lp1106\n(lp1107\n(S'Canvas'\np1108\nI-1\ntp1109\na(S'Grid'\np1110\nI-16777216\ntp1111\naa(lp1112\n(S'contPalette'\np1113\n(I-16776961\nI-65536\nI0\nttp1114\naa(lp1115\nI-16776961\naI-65536\naI-16711936\naI-32768\naI-256\naI-65281\naI-16711681\naI-8388353\naI-16744193\naI-8320\naI-8425664\naI-10736128\naI-16755712\naI-4145152\naI-16744577\naI-8388608\naI-8454017\naatp1116\na(S'Default'\n(lp1117\n(lp1118\n(g1108\nI-1\ntp1119\na(g1110\nI-16777216\ntp1120\naa(lp1121\n(g1113\n(I-1\nI-16777216\nI0\nttp1122\naa(lp1123\nI-16776961\naI-65536\naI-16711936\naI-32768\naI-256\naI-65281\naI-16711681\naI-8388353\naI-16744193\naI-8320\naI-8425664\naI-10736128\naI-16755712\naI-4145152\naI-16744577\naI-8388608\naI-8454017\naatp1124\nasS'VizRankLearnerName'\np1125\nS'VizRank (Scatterplot)'\np1126\ns."
p13
sS'Parallel coordinates'
p14
S"(dp1\nS'showAllAttributes'\np2\nI0\nsS'autoSendSelection'\np3\nI1\nsS'graph.hidePureExamples'\np4\nI00\nsS'toolbarSelection'\np5\nI0\nsS'graph.showDistributions'\np6\nI00\nsS'widgetXPosition'\np7\nI359\nsS'graph.useSplines'\np8\nI01\nsS'graph.lineTracking'\np9\nI01\nsS'widgetYPosition'\np10\nI-2\nsS'graph.enabledLegend'\np11\nI01\nsS'widgetShown'\np12\nI1\nsS'linesDistance'\np13\nI60\nsS'graph.showAttrValues'\np14\nI01\nsS'colorSettings'\np15\n(lp16\n(lp17\nS'Gregor'\np18\na(lp19\n(lp20\n(S'Canvas'\nI-1\ntp21\naa(lp22\n(S'contPalette'\n(I-1\nI-16777216\nI0\nttp23\naa(lp24\nI-16776961\naI-65536\naI-16711936\naI-32768\naI-256\naI-65281\naI-16711681\naI-8388353\naI-16744193\naI-8320\naI-8425664\naI-10736128\naI-16755712\naI-4145152\naI-16744577\naI-8388608\naI-8454017\naaaa(S'Default'\n(lp25\n(lp26\n(S'Canvas'\nI-1\ntp27\naa(lp28\n(S'contPalette'\n(I-1\nI-16777216\nI0\nttp29\naa(lp30\nI-16776961\naI-65536\naI-16711936\naI-32768\naI-256\naI-65281\naI-16711681\naI-8388353\naI-16744193\naI-8320\naI-8425664\naI-10736128\naI-16755712\naI-4145152\naI-16744577\naI-8388608\naI-8454017\naatp31\nasS'widgetWidth'\np32\nI900\nsS'graph.globalValueScaling'\np33\nI00\nsS'widgetHeight'\np34\nI700\nsS'selectedSchemaIndex'\np35\nI1\nsS'graph.showStatistics'\np36\nI0\nsS'graph.jitterSize'\np37\nF10\ns."
p15
sS'Select Attributes'
p16
S"(dp1\nS'widgetHeight'\np2\nI480\nsS'widgetXPosition'\np3\nI10\nsS'widgetYPosition'\np4\nI5\nsS'widgetShown'\np5\nI1\nsS'widgetWidth'\np6\nI400\nsS'localContexts'\np7\n(lp8\n(iOWContexts\nContext\np9\n(dp10\nS'noCopy'\np11\n(lp12\nS'orderedDomain'\np13\nasS'encodedDomain'\np14\n(dp15\nS'lugboot'\np16\nI1\nsS'maint'\np17\nI1\nsS'persons'\np18\nI1\nsS'safety'\np19\nI1\nsS'doors'\np20\nI1\nsS'y'\nI1\nsS'buying'\np21\nI1\nssS'values'\np22\n(dp23\nS'selectedMeta'\np24\n(lp25\nsS'metaAttributes'\np26\n(lp27\nsS'selectedChosen'\np28\n(lp29\nsS'chosenAttributes'\np30\n(lp31\n(S'buying'\nI1\ntp32\na(S'maint'\nI1\ntp33\na(S'doors'\nI1\ntp34\na(S'persons'\nI1\ntp35\na(S'lugboot'\nI1\ntp36\na(S'safety'\nI1\ntp37\nasS'classAttribute'\np38\n(lp39\n(S'y'\nI1\ntp40\nasS'selectedClass'\np41\n(lp42\nssS'time'\np43\nF1162216750.484\nsba(iOWContexts\nContext\np44\n(dp45\nS'values'\np46\n(dp47\nS'selectedMeta'\np48\n(lp49\nsS'metaAttributes'\np50\n(lp51\nsS'selectedChosen'\np52\n(lp53\nsS'chosenAttributes'\np54\n(lp55\n(S'capshape'\nI1\ntp56\na(S'capsurf'\nI1\ntp57\na(S'capcol'\nI1\ntp58\na(S'bruises'\nI1\ntp59\na(S'odor'\nI1\ntp60\na(S'gillattach'\nI1\ntp61\na(S'gillspace'\nI1\ntp62\na(S'gillsize'\nI1\ntp63\na(S'gillcol'\nI1\ntp64\na(S'stalkshape'\nI1\ntp65\na(S'ssurfar'\nI1\ntp66\na(S'ssurfbr'\nI1\ntp67\na(S'scolar'\nI1\ntp68\na(S'scolbr'\nI1\ntp69\na(S'veilcol'\nI1\ntp70\na(S'ringnumber'\nI1\ntp71\na(S'ringtype'\nI1\ntp72\na(S'sporeprint'\nI1\ntp73\na(S'population'\nI1\ntp74\nasS'classAttribute'\np75\n(lp76\n(S'habitat'\nI1\ntp77\nasS'selectedClass'\np78\n(lp79\nssS'time'\np80\nF1162202203.312\nsS'noCopy'\np81\n(lp82\nS'orderedDomain'\np83\nasS'encodedDomain'\np84\n(dp85\nS'ssurfar'\np86\nI1\nsS'population'\np87\nI1\nsS'edible'\np88\nI1\nsS'habitat'\np89\nI1\nsS'veilcol'\np90\nI1\nsS'ssurfbr'\np91\nI1\nsS'bruises'\np92\nI1\nsS'capsurf'\np93\nI1\nsS'gillcol'\np94\nI1\nsS'scolar'\np95\nI1\nsS'gillattach'\np96\nI1\nsS'sporeprint'\np97\nI1\nsS'ringtype'\np98\nI1\nsS'ringnumber'\np99\nI1\nsS'capshape'\np100\nI1\nsS'scolbr'\np101\nI1\nsS'gillsize'\np102\nI1\nsS'capcol'\np103\nI1\nsS'odor'\np104\nI1\nsS'stalkshape'\np105\nI1\nsS'gillspace'\np106\nI1\nssba(iOWContexts\nContext\np107\n(dp108\nS'noCopy'\np109\n(lp110\nS'orderedDomain'\np111\nasS'encodedDomain'\np112\n(dp113\nS'DYN_SHEX'\np114\nI2\nsS'lt-fr-do-R1'\np115\nI2\nsS'DYN_WFL'\np116\nI2\nsS'DYN_SHAB'\np117\nI2\nsS'lt-fr-do-R2'\np118\nI2\nsS'DIAG2'\np119\nI1\nsS'DYN_ELFL'\np120\nI2\nsS'ltf-fr-do-R2'\np121\nI2\nsS'DYN_ELEX'\np122\nI2\nsS'ltf-fr-do-R1'\np123\nI2\nsS'cf-fr-do-R2'\np124\nI2\nsS'cf-fr-do-R1'\np125\nI2\nsS'ls-fr-do-V_TASK'\np126\nI2\nsS'ls-fr-do-N_COL2'\np127\nI2\nsS'mf-fr-do-F_MAX1'\np128\nI2\nsS'DYN_WEX'\np129\nI2\nsS'DYN_SHFL'\np130\nI2\nsS'lt-fr-do-DEV_MAX1'\np131\nI2\nsS'lt-fr-do-DEV_MAX2'\np132\nI2\nsS'ltf-fr-do-DEV_MAX1'\np133\nI2\nsS'ltf-fr-do-DEV_MAX2'\np134\nI2\nsS'cf-fr-do-DEV_MAX1'\np135\nI2\nsS'cf-fr-do-DEV_MAX2'\np136\nI2\nsS'ls-fr-do-R'\np137\nI2\nsS'DYN_GRIP'\np138\nI2\nsS'PERSON'\np139\nI2\nsS'NHPT'\np140\nI2\nssS'values'\np141\n(dp142\nS'selectedMeta'\np143\n(lp144\nsS'metaAttributes'\np145\n(lp146\n(S'PERSON'\nI2\ntp147\nasS'selectedChosen'\np148\n(lp149\nsS'chosenAttributes'\np150\n(lp151\n(S'DYN_SHFL'\nI2\ntp152\na(S'DYN_SHEX'\nI2\ntp153\na(S'DYN_SHAB'\nI2\ntp154\na(S'DYN_ELFL'\nI2\ntp155\na(S'DYN_ELEX'\nI2\ntp156\na(S'DYN_WFL'\nI2\ntp157\na(S'DYN_WEX'\nI2\ntp158\na(S'DYN_GRIP'\nI2\ntp159\na(S'NHPT'\nI2\ntp160\na(S'DYN_SHFL'\nI2\ntp161\na(S'DYN_SHEX'\nI2\ntp162\na(S'DYN_SHAB'\nI2\ntp163\na(S'DYN_ELFL'\nI2\ntp164\na(S'DYN_ELEX'\nI2\ntp165\na(S'DYN_WFL'\nI2\ntp166\na(S'DYN_WEX'\nI2\ntp167\na(S'DYN_GRIP'\nI2\ntp168\na(S'NHPT'\nI2\ntp169\na(S'cf-fr-do-DEV_MAX1'\nI2\ntp170\na(S'cf-fr-do-R1'\nI2\ntp171\na(S'cf-fr-do-DEV_MAX2'\nI2\ntp172\na(S'cf-fr-do-R2'\nI2\ntp173\na(S'lt-fr-do-DEV_MAX1'\nI2\ntp174\na(S'lt-fr-do-R1'\nI2\ntp175\na(S'lt-fr-do-DEV_MAX2'\nI2\ntp176\na(S'lt-fr-do-R2'\nI2\ntp177\na(S'ltf-fr-do-DEV_MAX1'\nI2\ntp178\na(S'ltf-fr-do-R1'\nI2\ntp179\na(S'ltf-fr-do-DEV_MAX2'\nI2\ntp180\na(S'ltf-fr-do-R2'\nI2\ntp181\na(S'ls-fr-do-N_COL2'\nI2\ntp182\na(S'ls-fr-do-V_TASK'\nI2\ntp183\na(S'ls-fr-do-R'\nI2\ntp184\na(S'mf-fr-do-F_MAX1'\nI2\ntp185\nasS'classAttribute'\np186\n(lp187\nsS'selectedClass'\np188\n(lp189\nssS'time'\np190\nF1148639562.7030001\nsba(iOWContexts\nContext\np191\n(dp192\ng109\n(lp193\ng111\nasg112\n(dp194\nS'JEBSEN_N'\np195\nI2\nsS'JEBSEN_D'\np196\nI2\nsS'JEBSEN_SK'\np197\nI2\nssg141\n(dp198\ng143\n(lp199\nsg145\n(lp200\nsg148\n(lp201\nsg150\n(lp202\n(S'JEBSEN_N'\nI2\ntp203\na(S'JEBSEN_D'\nI2\ntp204\na(S'JEBSEN_SK'\nI2\ntp205\nasg186\n(lp206\nsg188\n(lp207\nssg190\nF1148638881.187\nsba(iOWContexts\nContext\np208\n(dp209\nS'noCopy'\np210\n(lp211\nS'orderedDomain'\np212\nasS'encodedDomain'\np213\n(dp214\nS'DNA.PLOI'\np215\nI1\nsS'MEN1'\np216\nI1\nsS'BEZG1'\np217\nI1\nsS'INVAZIJA'\np218\nI1\nsS'KAT.D'\np219\nI2\nsS'GRAD1'\np220\nI1\nsS'KAT.L'\np221\nI2\nsS'STAROST'\np222\nI2\nsS'TKL'\np223\nI1\nsS'HR1'\np224\nI1\nsS'PREGL.BE'\np225\nI2\nsS'PROGRES'\np226\nI1\nsS'UPAR'\np227\nI2\nsS'VEL.S'\np228\nI1\nsS'STEVILO'\np229\nI2\nsS'PAI2CUT'\np230\nI1\nsS'PAI_2'\np231\nI2\nsS'PAI_1'\np232\nI2\nsS'INV1'\np233\nI1\nsS'TIPTU1'\np234\nI1\nsS'UPA3'\np235\nI1\nsS'UPA'\np236\nI2\nsS'VELIKOST'\np237\nI2\nsS'GRADUS'\np238\nI1\nsS'VRSTA_KT'\np239\nI1\nsS'PAI1.14'\np240\nI1\nsS'FAZAS'\np241\nI2\nsS'ZDRAVLJE'\np242\nI1\nsS'VEL1'\np243\nI1\nssS'values'\np244\n(dp245\nS'selectedMeta'\np246\n(lp247\nsS'metaAttributes'\np248\n(lp249\nsS'selectedChosen'\np250\n(lp251\nsS'chosenAttributes'\np252\n(lp253\n(S'TKL'\nI1\ntp254\na(S'VEL.S'\nI1\ntp255\na(S'GRADUS'\nI1\ntp256\na(S'INVAZIJA'\nI1\ntp257\na(S'DNA.PLOI'\nI1\ntp258\na(S'ZDRAVLJE'\nI1\ntp259\na(S'VRSTA_KT'\nI1\ntp260\na(S'MEN1'\nI1\ntp261\na(S'VEL1'\nI1\ntp262\na(S'TIPTU1'\nI1\ntp263\na(S'GRAD1'\nI1\ntp264\na(S'INV1'\nI1\ntp265\na(S'BEZG1'\nI1\ntp266\na(S'HR1'\nI1\ntp267\na(S'PAI2CUT'\nI1\ntp268\na(S'PAI1.14'\nI1\ntp269\na(S'UPA3'\nI1\ntp270\nasS'classAttribute'\np271\n(lp272\n(S'PROGRES'\nI1\ntp273\nasS'selectedClass'\np274\n(lp275\nssS'time'\np276\nF1141050155.5\nsba(iOWContexts\nContext\np277\n(dp278\nS'values'\np279\n(dp280\nS'selectedMeta'\np281\n(lp282\nsS'metaAttributes'\np283\n(lp284\nsS'selectedChosen'\np285\n(lp286\nsS'chosenAttributes'\np287\n(lp288\n(S'A3'\nI2\ntp289\na(S'A4'\nI2\ntp290\na(S'A5'\nI2\ntp291\na(S'A6'\nI2\ntp292\na(S'A1'\nI2\ntp293\na(S'A2'\nI2\ntp294\na(S'A7'\nI2\ntp295\na(S'A8'\nI2\ntp296\na(S'A11'\nI2\ntp297\na(S'A12'\nI2\ntp298\na(S'A13'\nI2\ntp299\nasS'classAttribute'\np300\n(lp301\n(S'Wine'\nI1\ntp302\nasS'selectedClass'\np303\n(lp304\nssS'time'\np305\nF1140701390.8280001\nsS'noCopy'\np306\n(lp307\nS'orderedDomain'\np308\nasS'encodedDomain'\np309\n(dp310\nS'A11'\np311\nI2\nsS'A10'\np312\nI2\nsS'A13'\np313\nI2\nsS'A12'\np314\nI2\nsS'A1'\np315\nI2\nsS'A3'\np316\nI2\nsS'A2'\np317\nI2\nsS'A5'\np318\nI2\nsS'A4'\np319\nI2\nsS'A7'\np320\nI2\nsS'A6'\np321\nI2\nsS'A9'\np322\nI2\nsS'A8'\np323\nI2\nsS'Wine'\np324\nI1\nssba(iOWContexts\nContext\np325\n(dp326\nS'orderedDomain'\np327\n(lp328\n(S'hair'\nI1\ntp329\na(S'feathers'\nI1\ntp330\na(S'eggs'\nI1\ntp331\na(S'milk'\nI1\ntp332\na(S'airborne'\nI1\ntp333\na(S'aquatic'\nI1\ntp334\na(S'predator'\nI1\ntp335\na(S'toothed'\nI1\ntp336\na(S'backbone'\nI1\ntp337\na(S'breathes'\nI1\ntp338\na(S'venomous'\nI1\ntp339\na(S'fins'\nI1\ntp340\na(S'legs'\nI1\ntp341\na(S'tail'\nI1\ntp342\na(S'domestic'\nI1\ntp343\na(S'catsize'\nI1\ntp344\na(S'type'\nI1\ntp345\nasS'time'\np346\nF1137501960.921\nsS'values'\np347\n(dp348\nS'selectedMeta'\np349\n(lp350\nsS'metaAttributes'\np351\n(lp352\n(S'domestic'\nI1\ntp353\na(S'catsize'\nI1\ntp354\nasS'selectedChosen'\np355\n(lp356\nsS'chosenAttributes'\np357\n(lp358\n(S'hair'\nI1\ntp359\na(S'feathers'\nI1\ntp360\na(S'eggs'\nI1\ntp361\na(S'milk'\nI1\ntp362\na(S'airborne'\nI1\ntp363\na(S'aquatic'\nI1\ntp364\na(S'predator'\nI1\ntp365\na(S'toothed'\nI1\ntp366\na(S'backbone'\nI1\ntp367\na(S'breathes'\nI1\ntp368\na(S'venomous'\nI1\ntp369\na(S'fins'\nI1\ntp370\na(S'legs'\nI1\ntp371\na(S'tail'\nI1\ntp372\nasS'classAttribute'\np373\n(lp374\n(S'type'\nI1\ntp375\nasS'selectedClass'\np376\n(lp377\nssS'encodedDomain'\np378\n(dp379\nS'aquatic'\np380\nI1\nsS'eggs'\np381\nI1\nsS'domestic'\np382\nI1\nsS'fins'\np383\nI1\nsS'backbone'\np384\nI1\nsS'feathers'\np385\nI1\nsS'predator'\np386\nI1\nsS'airborne'\np387\nI1\nsS'hair'\np388\nI1\nsS'toothed'\np389\nI1\nsS'tail'\np390\nI1\nsS'breathes'\np391\nI1\nsS'catsize'\np392\nI1\nsS'venomous'\np393\nI1\nsS'legs'\np394\nI1\nsS'type'\np395\nI1\nsS'milk'\np396\nI1\nssbas."
p17
sS'Radviz'
p18
S"(dp1\nS'autoSendSelection'\np2\nI01\nsS'widgetXPosition'\np3\nI390\nsS'widgetYPosition'\np4\nI54\nsS'addProjectedPositions'\np5\nI1\nsS'widgetWidth'\np6\nI863\nsS'selectedSchemaIndex'\np7\nI0\nsS'graph.pointWidth'\np8\nI10\nsS'graph.showFilledSymbols'\np9\nI01\nsS'widgetHeight'\np10\nI659\nsS'graph.scaleFactor'\np11\nF1\nsS'clusterClassifierName'\np12\nS'Visual cluster classifier (Radviz)'\np13\nsS'colorSettings'\np14\n((dp15\nS'Default'\np16\n(I-1\n(I-1\nI-16777216\nI0\nttp17\nsI0\n(I-1\n(I-16711681\nI-16777216\nI0\ntttp18\nsS'graph.globalValueScaling'\np19\nI0\nsS'graph.showClusters'\np20\nI0\nsS'graph.jitterSize'\np21\nF5\nsS'graph.useDifferentColors'\np22\nI01\nsS'graph.showProbabilities'\np23\nI00\nsS'graph.tooltipValue'\np24\nI0\nsS'widgetShown'\np25\nI0\nsS'learnerIndex'\np26\nI3\nsS'showAllAttributes'\np27\nI00\nsS'graph.showLegend'\np28\nI01\nsS'graph.optimizedDrawing'\np29\nI01\nsS'localContexts'\np30\n(lp31\n(iOWContexts\nContext\np32\n(dp33\nS'values'\np34\n(dp35\nS'shownAttributes'\np36\n(lp37\n(S'spore volume'\nI2\ntp38\na(S'spore shape'\nI2\ntp39\na(S'microcyst'\nI1\ntp40\na(S'macrocyst'\nI1\ntp41\na(S'aggr streaming'\nI2\ntp42\na(S'slug migr'\nI2\ntp43\na(S'aggr size'\nI2\ntp44\na(S'sorocarp habit'\nI1\ntp45\na(S'branching'\nI1\ntp46\na(S'stalk height'\nI2\ntp47\na(S'stalk diameter'\nI2\ntp48\na(S'sori diameter'\nI2\ntp49\na(S'support'\nI1\ntp50\na(S'cell diameter'\nI2\ntp51\na(S'cellular stalk'\nI1\ntp52\na(S'tip shape'\nI1\ntp53\na(S'phototropism'\nI2\ntp54\nasS'selectedShown'\np55\n(lp56\nssS'time'\np57\nF1166517778.296\nsS'noCopy'\np58\n(lp59\nS'orderedDomain'\np60\nasS'encodedDomain'\np61\n(dp62\nS'microcyst'\np63\nI1\nsS'branching'\np64\nI1\nsS'cellular stalk'\np65\nI1\nsS'slug migr'\np66\nI2\nsS'group'\np67\nI1\nsS'spore volume'\np68\nI2\nsS'support'\np69\nI1\nsS'aggr size'\np70\nI2\nsS'stalk diameter'\np71\nI2\nsS'Species'\np72\nI6\nsS'cell diameter'\np73\nI2\nsS'tip shape'\np74\nI1\nsS'stalk height'\np75\nI2\nsS'sori diameter'\np76\nI2\nsS'macrocyst'\np77\nI1\nsS'aggr streaming'\np78\nI2\nsS'spore shape'\np79\nI2\nsS'phototropism'\np80\nI2\nsS'sorocarp habit'\np81\nI1\nssba(iOWContexts\nContext\np82\n(dp83\nS'noCopy'\np84\n(lp85\nS'orderedDomain'\np86\nasS'encodedDomain'\np87\n(dp88\nS'ssurfar'\np89\nI1\nsS'gillspace'\np90\nI1\nsS'edible'\np91\nI1\nsS'habitat'\np92\nI1\nsS'veilcol'\np93\nI1\nsS'ssurfbr'\np94\nI1\nsS'bruises'\np95\nI1\nsS'capsurf'\np96\nI1\nsS'gillcol'\np97\nI1\nsS'odor'\np98\nI1\nsS'scolar'\np99\nI1\nsS'gillattach'\np100\nI1\nsS'stalkshape'\np101\nI1\nsS'ringtype'\np102\nI1\nsS'ringnumber'\np103\nI1\nsS'scolbr'\np104\nI1\nsS'gillsize'\np105\nI1\nsS'capcol'\np106\nI1\nsS'sporeprint'\np107\nI1\nsS'capshape'\np108\nI1\nsS'population'\np109\nI1\nssS'values'\np110\n(dp111\nS'shownAttributes'\np112\n(lp113\n(S'capshape'\nI1\ntp114\na(S'capsurf'\nI1\ntp115\na(S'capcol'\nI1\ntp116\na(S'bruises'\nI1\ntp117\na(S'odor'\nI1\ntp118\na(S'gillattach'\nI1\ntp119\na(S'gillspace'\nI1\ntp120\na(S'gillsize'\nI1\ntp121\na(S'gillcol'\nI1\ntp122\na(S'stalkshape'\nI1\ntp123\nasS'selectedShown'\np124\n(lp125\nssS'time'\np126\nF1163594039.734\nsba(iOWContexts\nContext\np127\n(dp128\nS'noCopy'\np129\n(lp130\nS'orderedDomain'\np131\nasS'encodedDomain'\np132\n(dp133\nS'highway-mpg'\np134\nI2\nsS'compression-ratio'\np135\nI2\nsS'height'\np136\nI2\nsS'stroke'\np137\nI2\nsS'horsepower'\np138\nI2\nsS'bore'\np139\nI2\nsS'num-of-cylinders'\np140\nI1\nsS'engine-location'\np141\nI1\nsS'make'\np142\nI1\nsS'normalized-losses'\np143\nI2\nsS'width'\np144\nI2\nsS'wheel-base'\np145\nI2\nsS'symboling'\np146\nI1\nsS'body-style'\np147\nI1\nsS'engine-size'\np148\nI2\nsS'drive-wheels'\np149\nI1\nsS'curb-weight'\np150\nI2\nsS'price'\np151\nI1\nsS'fuel-system'\np152\nI1\nsS'num-of-doors'\np153\nI1\nsS'fuel-type'\np154\nI1\nsS'aspiration'\np155\nI1\nsS'engine-type'\np156\nI1\nsS'length'\np157\nI2\nsS'city-mpg'\np158\nI2\nsS'peak-rpm'\np159\nI2\nssS'values'\np160\n(dp161\nS'shownAttributes'\np162\n(lp163\n(S'engine-location'\nI1\ntp164\na(S'length'\nI2\ntp165\na(S'curb-weight'\nI2\ntp166\na(S'num-of-cylinders'\nI1\ntp167\na(S'fuel-system'\nI1\ntp168\na(S'peak-rpm'\nI2\ntp169\na(S'highway-mpg'\nI2\ntp170\nasS'selectedShown'\np171\n(lp172\nssS'time'\np173\nF1157973758.562\nsba(iOWContexts\nContext\np174\n(dp175\nS'values'\np176\n(dp177\nS'shownAttributes'\np178\n(lp179\n(S'LSTAT'\nI2\ntp180\na(S'RM'\nI2\ntp181\na(S'CHAS'\nI2\ntp182\na(S'DIS'\nI2\ntp183\na(S'NOX'\nI2\ntp184\na(S'AGE'\nI2\ntp185\nasS'selectedShown'\np186\n(lp187\nssS'time'\np188\nF1157969557.125\nsS'noCopy'\np189\n(lp190\nS'orderedDomain'\np191\nasS'encodedDomain'\np192\n(dp193\nS'CRIM'\np194\nI2\nsS'ZN'\np195\nI2\nsS'B'\nI2\nsS'LSTAT'\np196\nI2\nsS'AGE'\np197\nI2\nsS'TAX'\np198\nI2\nsS'RAD'\np199\nI2\nsS'CHAS'\np200\nI2\nsS'NOX'\np201\nI2\nsS'MEDV'\np202\nI1\nsS'RM'\np203\nI2\nsS'INDUS'\np204\nI2\nsS'PTRATIO'\np205\nI2\nsS'DIS'\np206\nI2\nssba(iOWContexts\nContext\np207\n(dp208\nS'noCopy'\np209\n(lp210\nS'orderedDomain'\np211\nasS'encodedDomain'\np212\n(dp213\nS'sepal width'\np214\nI2\nsS'petal width'\np215\nI2\nsS'petal length'\np216\nI2\nsS'sepal length'\np217\nI2\nsS'iris'\np218\nI1\nssS'values'\np219\n(dp220\nS'shownAttributes'\np221\n(lp222\n(S'sepal length'\nI2\ntp223\na(S'sepal width'\nI2\ntp224\na(S'petal length'\nI2\ntp225\nasS'selectedShown'\np226\n(lp227\nssS'time'\np228\nF1157558698.6400001\nsba(iOWContexts\nContext\np229\n(dp230\nS'values'\np231\n(dp232\nS'shownAttributes'\np233\n(lp234\n(S'wT'\nI2\ntp235\na(S'resultCA'\nI2\ntp236\na(S'pT'\nI2\ntp237\nasS'selectedShown'\np238\n(lp239\nssS'time'\np240\nF1144999951.625\nsS'noCopy'\np241\n(lp242\nS'orderedDomain'\np243\nasS'encodedDomain'\np244\n(dp245\nS'wT'\np246\nI2\nsS'pT'\np247\nI2\nsS'resultCA'\np248\nI2\nssba(iOWContexts\nContext\np249\n(dp250\nS'values'\np251\n(dp252\nS'shownAttributes'\np253\n(lp254\n(S'wT1'\nI2\ntp255\na(S'wT2'\nI2\ntp256\na(S'pT'\nI2\ntp257\nasS'selectedShown'\np258\n(lp259\nssS'time'\np260\nF1144757385.296\nsS'noCopy'\np261\n(lp262\nS'orderedDomain'\np263\nasS'encodedDomain'\np264\n(dp265\nS'wT1'\np266\nI2\nsS'wT2'\np267\nI2\nsS'result'\np268\nI2\nsS'pT'\np269\nI2\nssba(iOWContexts\nContext\np270\n(dp271\nS'values'\np272\n(dp273\nS'shownAttributes'\np274\n(lp275\n(S'spo- mid'\nI2\ntp276\na(S'diau f'\nI2\ntp277\na(S'Elu 180'\nI2\ntp278\nasS'selectedShown'\np279\n(lp280\nssS'time'\np281\nF1144404540.5309999\nsS'noCopy'\np282\n(lp283\nS'orderedDomain'\np284\nasS'encodedDomain'\np285\n(dp286\nS'Elu 270'\np287\nI2\nsS'spo5 7'\np288\nI2\nsS'alpha 14'\np289\nI2\nsS'Elu 390'\np290\nI2\nsS'alpha 56'\np291\nI2\nsS'Elu 210'\np292\nI2\nsS'Elu 60'\np293\nI2\nsS'cdc15 130'\np294\nI2\nsS'Elu 330'\np295\nI2\nsS'cdc15 50'\np296\nI2\nsS'spo 11'\np297\nI2\nsS'spo- mid'\np298\nI2\nsS'dtt 15'\np299\nI2\nsS'alpha 91'\np300\nI2\nsS'cdc15 90'\np301\nI2\nsS'alpha 105'\np302\nI2\nsS'dtt 30'\np303\nI2\nsS'spo5 2'\np304\nI2\nsS'Elu 150'\np305\nI2\nsS'cold 20'\np306\nI2\nsS'cdc15 10'\np307\nI2\nsS'alpha 0'\np308\nI2\nsS'alpha 7'\np309\nI2\nsS'heat 80'\np310\nI2\nsS'diau a'\np311\nI2\nsS'diau c'\np312\nI2\nsS'diau b'\np313\nI2\nsS'diau e'\np314\nI2\nsS'diau d'\np315\nI2\nsS'spo5 11'\np316\nI2\nsS'diau f'\np317\nI2\nsS'cold 160'\np318\nI2\nsS'alpha 28'\np319\nI2\nsS'Elu 30'\np320\nI2\nsS'alpha 98'\np321\nI2\nsS'dtt 60'\np322\nI2\nsS'function'\np323\nI1\nsS'heat 40'\np324\nI2\nsS'alpha 42'\np325\nI2\nsS'cdc15 170'\np326\nI2\nsS'alpha 63'\np327\nI2\nsS'Elu 360'\np328\nI2\nsS'heat 160'\np329\nI2\nsS'dtt 120'\np330\nI2\nsS'alpha 49'\np331\nI2\nsS'Elu 180'\np332\nI2\nsS'heat 20'\np333\nI2\nsS'Elu 240'\np334\nI2\nsS'cdc15 70'\np335\nI2\nsS'cdc15 150'\np336\nI2\nsS'alpha 84'\np337\nI2\nsS'cdc15 110'\np338\nI2\nsS'cdc15 290'\np339\nI2\nsS'cold 40'\np340\nI2\nsS'cold 0'\np341\nI2\nsS'Elu 90'\np342\nI2\nsS'cdc15 270'\np343\nI2\nsS'diau g'\np344\nI2\nsS'alpha 112'\np345\nI2\nsS'spo 0'\np346\nI2\nsS'spo 2'\np347\nI2\nsS'spo 5'\np348\nI2\nsS'cdc15 250'\np349\nI2\nsS'spo 7'\np350\nI2\nsS'Elu 120'\np351\nI2\nsS'Elu 0'\np352\nI2\nsS'cdc15 30'\np353\nI2\nsS'Elu 300'\np354\nI2\nsS'alpha 119'\np355\nI2\nsS'cdc15 230'\np356\nI2\nsS'alpha 35'\np357\nI2\nsS'spo 9'\np358\nI2\nsS'spo- early'\np359\nI2\nsS'heat 10'\np360\nI2\nsS'heat 0'\np361\nI2\nsS'cdc15 190'\np362\nI2\nsS'alpha 70'\np363\nI2\nsS'gene'\np364\nI6\nsS'cdc15 210'\np365\nI2\nsS'alpha 77'\np366\nI2\nsS'alpha 21'\np367\nI2\nssba(iOWContexts\nContext\np368\n(dp369\ng282\n(lp370\ng284\nasg285\n(dp371\nS'Elu 270'\np372\nI2\nsS'spo5 7'\np373\nI2\nsS'alpha 14'\np374\nI2\nsS'Elu 390'\np375\nI2\nsS'alpha 56'\np376\nI2\nsS'Elu 210'\np377\nI2\nsS'Elu 60'\np378\nI2\nsS'cdc15 130'\np379\nI2\nsS'Elu 330'\np380\nI2\nsS'cdc15 50'\np381\nI2\nsS'spo 11'\np382\nI2\nsS'spo- mid'\np383\nI2\nsS'dtt 15'\np384\nI2\nsS'alpha 91'\np385\nI2\nsS'cdc15 90'\np386\nI2\nsS'alpha 105'\np387\nI2\nsS'dtt 30'\np388\nI2\nsS'spo5 2'\np389\nI2\nsS'Elu 150'\np390\nI2\nsS'cold 20'\np391\nI2\nsS'cdc15 10'\np392\nI2\nsS'alpha 0'\np393\nI2\nsS'alpha 7'\np394\nI2\nsS'heat 80'\np395\nI2\nsS'diau a'\np396\nI2\nsS'diau c'\np397\nI2\nsS'diau b'\np398\nI2\nsS'diau e'\np399\nI2\nsS'diau d'\np400\nI2\nsS'spo5 11'\np401\nI2\nsS'diau f'\np402\nI2\nsS'cold 160'\np403\nI2\nsS'alpha 28'\np404\nI2\nsS'Elu 30'\np405\nI2\nsS'alpha 98'\np406\nI2\nsS'dtt 60'\np407\nI2\nsS'function'\np408\nI1\nsS'heat 40'\np409\nI2\nsS'alpha 42'\np410\nI2\nsS'cdc15 170'\np411\nI2\nsS'alpha 63'\np412\nI2\nsS'Elu 360'\np413\nI2\nsS'index'\np414\nI2\nsS'dtt 120'\np415\nI2\nsS'heat 160'\np416\nI2\nsS'Elu 180'\np417\nI2\nsS'heat 20'\np418\nI2\nsS'Elu 240'\np419\nI2\nsS'cdc15 70'\np420\nI2\nsS'cdc15 150'\np421\nI2\nsS'alpha 84'\np422\nI2\nsS'cdc15 110'\np423\nI2\nsS'cdc15 290'\np424\nI2\nsS'cold 40'\np425\nI2\nsS'cold 0'\np426\nI2\nsS'Elu 90'\np427\nI2\nsS'cdc15 270'\np428\nI2\nsS'alpha 49'\np429\nI2\nsS'diau g'\np430\nI2\nsS'alpha 112'\np431\nI2\nsS'spo 0'\np432\nI2\nsS'spo 2'\np433\nI2\nsS'spo 5'\np434\nI2\nsS'cdc15 250'\np435\nI2\nsS'spo 7'\np436\nI2\nsS'Elu 120'\np437\nI2\nsS'Elu 0'\np438\nI2\nsS'cdc15 30'\np439\nI2\nsS'Elu 300'\np440\nI2\nsS'alpha 119'\np441\nI2\nsS'cdc15 230'\np442\nI2\nsS'alpha 35'\np443\nI2\nsS'spo 9'\np444\nI2\nsS'spo- early'\np445\nI2\nsS'heat 10'\np446\nI2\nsS'heat 0'\np447\nI2\nsS'cdc15 190'\np448\nI2\nsS'alpha 70'\np449\nI2\nsS'gene'\np450\nI6\nsS'cdc15 210'\np451\nI2\nsS'alpha 77'\np452\nI2\nsS'alpha 21'\np453\nI2\nssg272\n(dp454\ng274\n(lp455\n(S'spo5 2'\nI2\ntp456\na(S'diau g'\nI2\ntp457\na(S'diau f'\nI2\ntp458\na(S'dtt 120'\nI2\ntp459\na(S'spo- early'\nI2\ntp460\na(S'spo- mid'\nI2\ntp461\na(S'alpha 98'\nI2\ntp462\na(S'Elu 90'\nI2\ntp463\nasg279\n(lp464\nssg281\nF1144404540.5309999\nsba(iOWContexts\nContext\np465\n(dp466\nS'noCopy'\np467\n(lp468\nS'orderedDomain'\np469\nasS'encodedDomain'\np470\n(dp471\nS'spec_forms'\np472\nI1\nsS'exclusion'\np473\nI1\nsS'no_nodes'\np474\nI1\nsS'bl_affere'\np475\nI1\nsS'changes_lym'\np476\nI1\nsS'bl_lymph_s'\np477\nI1\nsS'changes_node'\np478\nI1\nsS'defect'\np479\nI1\nsS'lym_enlar'\np480\nI1\nsS'lym_dimin'\np481\nI1\nsS'bl_lymph_c'\np482\nI1\nsS'changes_stru'\np483\nI1\nsS'early_uptake'\np484\nI1\nsS'y'\nI1\nsS'dislocation'\np485\nI1\nsS'regen'\np486\nI1\nsS'by_pass'\np487\nI1\nsS'lymphatics'\np488\nI1\nsS'extravasates'\np489\nI1\nssS'values'\np490\n(dp491\nS'shownAttributes'\np492\n(lp493\n(S'lymphatics'\nI1\ntp494\na(S'bl_affere'\nI1\ntp495\na(S'bl_lymph_c'\nI1\ntp496\na(S'bl_lymph_s'\nI1\ntp497\na(S'by_pass'\nI1\ntp498\na(S'extravasates'\nI1\ntp499\na(S'regen'\nI1\ntp500\na(S'early_uptake'\nI1\ntp501\na(S'lym_dimin'\nI1\ntp502\na(S'lym_enlar'\nI1\ntp503\nasS'selectedShown'\np504\n(lp505\nssS'time'\np506\nF1144397601.3280001\nsba(iOWContexts\nContext\np507\n(dp508\nS'orderedDomain'\np509\n(lp510\n(S'hair'\nI1\ntp511\na(S'feathers'\nI1\ntp512\na(S'eggs'\nI1\ntp513\na(S'milk'\nI1\ntp514\na(S'airborne'\nI1\ntp515\na(S'aquatic'\nI1\ntp516\na(S'predator'\nI1\ntp517\na(S'toothed'\nI1\ntp518\na(S'backbone'\nI1\ntp519\na(S'breathes'\nI1\ntp520\na(S'venomous'\nI1\ntp521\na(S'fins'\nI1\ntp522\na(S'legs'\nI1\ntp523\na(S'tail'\nI1\ntp524\na(S'domestic'\nI1\ntp525\na(S'catsize'\nI1\ntp526\na(S'type'\nI1\ntp527\na(S'name'\nI6\ntp528\nasS'time'\np529\nF1137665941.312\nsS'values'\np530\n(dp531\nS'shownAttributes'\np532\n(lp533\n(S'eggs'\nI1\ntp534\na(S'venomous'\nI1\ntp535\na(S'fins'\nI1\ntp536\na(S'feathers'\nI1\ntp537\na(S'legs'\nI1\ntp538\na(S'tail'\nI1\ntp539\nasS'selectedShown'\np540\n(lp541\nssS'encodedDomain'\np542\n(dp543\nS'fins'\np544\nI1\nsS'aquatic'\np545\nI1\nsS'name'\np546\nI6\nsS'feathers'\np547\nI1\nsS'eggs'\np548\nI1\nsS'backbone'\np549\nI1\nsS'domestic'\np550\nI1\nsS'predator'\np551\nI1\nsS'airborne'\np552\nI1\nsS'hair'\np553\nI1\nsS'toothed'\np554\nI1\nsS'tail'\np555\nI1\nsS'breathes'\np556\nI1\nsS'catsize'\np557\nI1\nsS'venomous'\np558\nI1\nsS'legs'\np559\nI1\nsS'type'\np560\nI1\nsS'milk'\np561\nI1\nssba(iOWContexts\nContext\np562\n(dp563\nS'orderedDomain'\np564\n(lp565\n(S'A1'\nI2\ntp566\na(S'A2'\nI2\ntp567\na(S'A3'\nI2\ntp568\na(S'A4'\nI2\ntp569\na(S'A5'\nI2\ntp570\na(S'A6'\nI2\ntp571\na(S'A7'\nI2\ntp572\na(S'A8'\nI2\ntp573\na(S'A9'\nI2\ntp574\na(S'A10'\nI2\ntp575\na(S'A11'\nI2\ntp576\na(S'A12'\nI2\ntp577\na(S'A13'\nI2\ntp578\na(S'Wine'\nI1\ntp579\nasS'time'\np580\nF1137664272.609\nsS'values'\np581\n(dp582\nS'shownAttributes'\np583\n(lp584\n(S'A3'\nI2\ntp585\na(S'A4'\nI2\ntp586\na(S'A6'\nI2\ntp587\na(S'A7'\nI2\ntp588\na(S'A10'\nI2\ntp589\na(S'A11'\nI2\ntp590\na(S'A12'\nI2\ntp591\na(S'A13'\nI2\ntp592\nag579\nasS'selectedShown'\np593\n(lp594\nssS'encodedDomain'\np595\n(dp596\nS'A11'\np597\nI2\nsS'A10'\np598\nI2\nsS'A13'\np599\nI2\nsS'A12'\np600\nI2\nsS'A1'\np601\nI2\nsS'A3'\np602\nI2\nsS'A2'\np603\nI2\nsS'A5'\np604\nI2\nsS'A4'\np605\nI2\nsS'A7'\np606\nI2\nsS'A6'\np607\nI2\nsS'A9'\np608\nI2\nsS'A8'\np609\nI2\nsS'Wine'\np610\nI1\nssba(iOWContexts\nContext\np611\n(dp612\ng564\n(lp613\n(S'A3'\nI2\ntp614\na(S'A4'\nI2\ntp615\na(S'A5'\nI2\ntp616\na(S'A6'\nI2\ntp617\na(S'A1'\nI2\ntp618\na(S'A2'\nI2\ntp619\na(S'A7'\nI2\ntp620\na(S'A8'\nI2\ntp621\na(S'A10'\nI2\ntp622\na(S'A11'\nI2\ntp623\na(S'A12'\nI2\ntp624\na(S'A13'\nI2\ntp625\na(S'A9'\nI2\ntp626\nasg595\n(dp627\nS'A11'\np628\nI2\nsS'A10'\np629\nI2\nsS'A13'\np630\nI2\nsS'A12'\np631\nI2\nsS'A1'\np632\nI2\nsS'A3'\np633\nI2\nsS'A2'\np634\nI2\nsS'A5'\np635\nI2\nsS'A4'\np636\nI2\nsS'A7'\np637\nI2\nsS'A6'\np638\nI2\nsS'A9'\np639\nI2\nsS'A8'\np640\nI2\nssg581\n(dp641\nS'shownAttributes'\np642\n(lp643\n(S'A13'\nI2\ntp644\na(S'A7'\nI2\ntp645\na(S'A8'\nI2\ntp646\na(S'A10'\nI2\ntp647\nasS'selectedShown'\np648\n(lp649\nssg580\nF1137664272.609\nsbasS'valueScalingType'\np650\nI0\nsS'toolbarSelection'\np651\nI1\nsS'graph.tooltipKind'\np652\nI1\nsS'graph.useDifferentSymbols'\np653\nI00\nsS'VizRankLearnerName'\np654\nS'VizRank (Radviz)'\np655\ns."
p19
s.